(dp0
S'fawn'
p1
(lp2
(lp3
(lp4
F38.93165442344244
aF19.20868876186408
aa(lp5
F49.31633413037193
aF21.729198881278723
aa(lp6
F75.18373275236445
aF12.702910063409574
aaag1
aF8.86345551333195e-05
aI01
asS'light grey blue'
p7
(lp8
(lp9
(lp10
F199.91834584806048
aF34.35172028825481
aa(lp11
F29.28012326463416
aF14.551447962080198
aa(lp12
F81.79271708683166
aF10.865396015576954
aaag7
aF0.0001470677062952857
aI00
asS'pale violet'
p13
(lp14
(lp15
(lp16
F-75.96423802421938
aF34.82949718147942
aa(lp17
F36.01005592537066
aF17.654887152764992
aa(lp18
F84.50980392157078
aF11.829487582034098
aaag13
aF0.000177269110266639
aI01
asS'light lilac'
p19
(lp20
(lp21
(lp22
F-75.56931074177776
aF33.86710142207998
aa(lp23
F29.6182769767219
aF17.76512287427151
aa(lp24
F89.90334161833593
aF8.022856246472184
aaag19
aF9.323042095504717e-05
aI01
asS'clay brown'
p25
(lp26
(lp27
(lp28
F24.05200816820615
aF13.411803285427911
aa(lp29
F65.59916135440382
aF18.97531167574984
aa(lp30
F66.73616281956073
aF11.474497808468664
aaag25
aF5.186762855949808e-05
aI01
asS'peacock blue'
p31
(lp32
(lp33
(lp34
F205.810275364481
aF20.379239163371263
aa(lp35
F83.08395287201625
aF13.244702670403669
aa(lp36
F75.26861150964386
aF16.216199480050335
aaag31
aF8.075592801035776e-05
aI00
asS'carnation pink'
p37
(lp38
(lp39
(lp40
F-20.57792362186155
aF20.016997053703292
aa(lp41
F47.82303960049781
aF16.432413770490534
aa(lp42
F92.003410059679
aF6.182443835349664
aaag37
aF9.060421191405994e-05
aI01
asS'dirty orange'
p43
(lp44
(lp45
(lp46
F30.985678101401703
aF10.389263790745499
aa(lp47
F80.76732403387891
aF11.294545391614916
aa(lp48
F81.28982843137344
aF9.334619538753993
aaag43
aF8.403868931159183e-05
aI00
asS'yellow'
p49
(lp50
(lp51
(lp52
F57.805265414450886
aF11.390120440821244
aa(lp53
F77.47254782341776
aF16.067974294713046
aa(lp54
F92.52597369432655
aF6.891333795196837
aaag49
aF0.014367333110980969
aI01
asS'cobalt'
p55
(lp56
(lp57
(lp58
F222.12509749194112
aF26.185873560825044
aa(lp59
F71.16470406758881
aF22.6094831138866
aa(lp60
F66.46547670163022
aF18.25384817291396
aaag55
aF0.0006296336175766918
aI00
asS'camouflage green'
p61
(lp62
(lp63
(lp64
F80.47448567613259
aF21.000238238178376
aa(lp65
F54.92877391730284
aF22.798000475719125
aa(lp66
F52.12324929971714
aF14.615820258268654
aaag61
aF4.595865821727678e-05
aI01
asS'dark mint green'
p67
(lp68
(lp69
(lp70
F139.27938066260216
aF19.967998191392603
aa(lp71
F67.81971993120871
aF20.357445478322365
aa(lp72
F75.05461244900938
aF12.934651751310078
aaag67
aF9.782628677677486e-05
aI01
asS'minty green'
p73
(lp74
(lp75
(lp76
F135.51934819024456
aF20.136528338269287
aa(lp77
F62.11372301378832
aF22.25064044600586
aa(lp78
F86.91535150645952
aF10.442073919375762
aaag73
aF0.00013459321335059627
aI00
asS'deep violet'
p79
(lp80
(lp81
(lp82
F-72.84612091186541
aF26.500511194076307
aa(lp83
F74.12375999863755
aF18.64139253691748
aa(lp84
F50.48739495798143
aF21.200855937385732
aaag79
aF9.191731643455356e-05
aI01
asS'claret'
p85
(lp86
(lp87
(lp88
F-19.062045961326326
aF14.602226433978359
aa(lp89
F80.62525709466297
aF13.754073311569297
aa(lp90
F55.6427015250543
aF15.554762189667573
aaag85
aF5.31807330799917e-05
aI01
asS'skin'
p91
(lp92
(lp93
(lp94
F24.939547270032964
aF16.433468210779843
aa(lp95
F39.84061476352834
aF13.933668824538568
aa(lp96
F90.85776330075905
aF7.438060232620125
aaag91
aF0.000403123087791542
aI01
asS'dull red'
p97
(lp98
(lp99
(lp100
F-1.1584646967216734
aF10.795428161681198
aa(lp101
F70.42744702102607
aF15.299526912534045
aa(lp102
F72.51336898395574
aF11.4144924711917
aaag97
aF0.0001588856469797283
aI01
asS'apple green'
p103
(lp104
(lp105
(lp106
F103.68687829263459
aF20.72104301743309
aa(lp107
F76.13060964783408
aF16.510075490354634
aa(lp108
F82.80627268369432
aF10.845137114679627
aaag103
aF0.0005639783915520108
aI00
asS'blue-grey'
p109
(lp110
(lp111
(lp112
F200.5224567655553
aF33.08996410955093
aa(lp113
F35.376364903645324
aF18.183806545307874
aa(lp114
F63.73744408525022
aF16.423306626234215
aaag109
aF0.003715429240736704
aI00
asS'darkish purple'
p115
(lp116
(lp117
(lp118
F289.9673998555933
aF23.369040781110225
aa(lp119
F71.69553737645974
aF19.647667485912002
aa(lp120
F55.36032594856234
aF16.0284057326353
aaag115
aF5.0554524039004455e-05
aI00
asS'greyish brown'
p121
(lp122
(lp123
(lp124
F35.3864575327644
aF27.66014041390577
aa(lp125
F35.27521091858617
aF15.349126300293332
aa(lp126
F52.88843813387068
aF13.685516119422092
aaag121
aF0.00019040015547157522
aI01
asS'prussian blue'
p127
(lp128
(lp129
(lp130
F221.0884318321199
aF22.0553740213482
aa(lp131
F72.896764044512
aF18.17901711703222
aa(lp132
F52.023251778588055
aF17.62797598352869
aaag127
aF0.0001483808108157793
aI00
asS'deep purple'
p133
(lp134
(lp135
(lp136
F-70.9044584485926
aF26.31047464986188
aa(lp137
F74.71845810681724
aF18.222683192669624
aa(lp138
F44.869816779169646
aF17.65134535849692
aaag133
aF0.0013616893877518863
aI01
asS'yellow ochre'
p139
(lp140
(lp141
(lp142
F47.925942351302545
aF8.344930717330811
aa(lp143
F79.26563213864272
aF15.478315817177652
aa(lp144
F77.96677906831404
aF11.476749171909509
aaag139
aF0.00010307870485874935
aI00
asS'dark maroon'
p145
(lp146
(lp147
(lp148
F-16.209829776496925
aF16.93867166079902
aa(lp149
F73.91126256447896
aF18.797157665528385
aa(lp150
F35.928571428573235
aF13.55925970554767
aaag145
aF0.00018383463286910712
aI01
asS'vomit green'
p151
(lp152
(lp153
(lp154
F76.52274138719675
aF17.936818167511955
aa(lp155
F72.71018385578836
aF19.222171074139776
aa(lp156
F71.26063210672257
aF15.904354400497342
aaag151
aF0.0002875698899881033
aI01
asS'crimson'
p157
(lp158
(lp159
(lp160
F-7.0158854518798845
aF12.228970420302677
aa(lp161
F86.67002287039932
aF10.891533444569168
aa(lp162
F66.323819850522
aF15.848433740971572
aaag157
aF0.000997302883314906
aI01
asS'amethyst'
p163
(lp164
(lp165
(lp166
F-73.9220078021516
aF23.295871708431974
aa(lp167
F59.88821909883308
aF20.83785278540718
aa(lp168
F70.92554504319443
aF16.852033843018422
aaag163
aF9.388697321529399e-05
aI01
asS'brown'
p169
(lp170
(lp171
(lp172
F28.17171665005753
aF16.60554135943236
aa(lp173
F69.08662553152254
aF19.725886914504745
aa(lp174
F53.148835280168
aF16.005942727912664
aaag169
aF0.024178850088109313
aI01
asS'green-yellow'
p175
(lp176
(lp177
(lp178
F79.27117204344407
aF17.831007098625555
aa(lp179
F77.37584391081637
aF15.696704433529229
aa(lp180
F84.7533335614653
aF11.479401595882562
aaag175
aF0.0011286133353642684
aI00
asS'sage green'
p181
(lp182
(lp183
(lp184
F105.51136907762195
aF27.700274811285766
aa(lp185
F45.38101265096734
aF19.18111508659734
aa(lp186
F70.15909972836579
aF15.506510426789847
aaag181
aF0.0005639783915520108
aI00
asS'bile'
p187
(lp188
(lp189
(lp190
F69.0039178071064
aF21.574299177053334
aa(lp191
F73.83278553146522
aF20.73005414516568
aa(lp192
F74.64686845611551
aF18.093323758586102
aaag187
aF6.762488280542154e-05
aI00
asS'brown-green'
p193
(lp194
(lp195
(lp196
F64.73625918652652
aF16.83970290891825
aa(lp197
F67.76310207922585
aF19.599578957554755
aa(lp198
F52.94117647059065
aF15.630703781353677
aaag193
aF0.000309236114576248
aI00
asS'light periwinkle'
p199
(lp200
(lp201
(lp202
F235.49129744505746
aF36.380643699979295
aa(lp203
F31.060825155024727
aF15.75314328664007
aa(lp204
F89.85294117647139
aF7.363694284732594
aaag199
aF7.353385314764285e-05
aI00
asS'purpley blue'
p205
(lp206
(lp207
(lp208
F251.99875177181124
aF14.137878271179655
aa(lp209
F70.50863853901446
aF18.19893893297733
aa(lp210
F77.88077571064832
aF15.534825681793244
aaag205
aF0.00035913408635500566
aI00
asS'bright cyan'
p211
(lp212
(lp213
(lp214
F180.1130178502615
aF16.850061091664305
aa(lp215
F76.53257797585384
aF15.982614774111477
aa(lp216
F93.50930115636152
aF5.896295671730732
aaag211
aF5.121107629925127e-05
aI00
asS'seafoam blue'
p217
(lp218
(lp219
(lp220
F172.5343432164082
aF16.82789399692955
aa(lp221
F60.12447451464434
aF22.68108391700979
aa(lp222
F78.2486631016057
aF15.551217704970465
aaag217
aF5.777659890171938e-05
aI00
asS'marigold'
p223
(lp224
(lp225
(lp226
F47.36429093541157
aF8.30297416508118
aa(lp227
F83.04338311645091
aF12.36019368957107
aa(lp228
F89.52965235173735
aF8.130154918278626
aaag223
aF0.00021403603684046042
aI00
asS'reddish'
p229
(lp230
(lp231
(lp232
F-5.866818919328356
aF13.723801292182237
aa(lp233
F73.3766653531225
aF15.524790889483647
aa(lp234
F76.59594985535367
aF12.935868347631732
aaag229
aF0.0003203975030004438
aI01
asS'grey'
p235
(lp236
(lp237
(lp238
F151.33332360460804
aF95.02107016806299
aa(lp239
F17.620879588319728
aF11.58801518104093
aa(lp240
F61.813732851602424
aF17.655333834472525
aaag235
aF0.017487926003934062
aI00
asS'asparagus'
p241
(lp242
(lp243
(lp244
F90.39207354029742
aF19.446412240012812
aa(lp245
F58.40252048778716
aF23.536180334539267
aa(lp246
F64.7591036414593
aF14.127619471494443
aaag241
aF9.191731643455356e-05
aI01
asS'light burgundy'
p247
(lp248
(lp249
(lp250
F-14.146911499038218
aF13.83417471277582
aa(lp251
F68.31686992730268
aF18.717782885669788
aa(lp252
F65.4311990282814
aF11.619231442745473
aaag247
aF7.419040540788965e-05
aI01
asS'lemon lime'
p253
(lp254
(lp255
(lp256
F79.75562916606098
aF13.676188917129835
aa(lp257
F78.57220476225027
aF14.383557503954163
aa(lp258
F91.68793443303333
aF6.606636511259269
aaag253
aF0.0001240883771866473
aI00
asS'greenish teal'
p259
(lp260
(lp261
(lp262
F154.45272438958403
aF14.62243499529909
aa(lp263
F71.58419070329927
aF17.906878993018424
aa(lp264
F73.36349924585247
aF15.91828130617566
aaag259
aF9.388697321529399e-05
aI00
asS'greyish green'
p265
(lp266
(lp267
(lp268
F114.4683151474426
aF32.914269135839525
aa(lp269
F36.00524010482171
aF15.968109914679774
aa(lp270
F62.59448707019053
aF15.315584679540628
aaag265
aF0.0005436252714843596
aI00
asS'sand'
p271
(lp272
(lp273
(lp274
F46.92321650616452
aF13.38540014072828
aa(lp275
F50.643947626735816
aF17.918992221210107
aa(lp276
F83.06912869600963
aF10.910042943673508
aaag271
aF0.0011942685613889495
aI01
asS'brownish'
p277
(lp278
(lp279
(lp280
F26.790604740172054
aF19.371992636840083
aa(lp281
F60.90884448963188
aF21.706508159556414
aa(lp282
F60.814803133050425
aF15.560802199905998
aaag277
aF0.00024489399307206055
aI01
asS'brownish purple'
p283
(lp284
(lp285
(lp286
F-16.913485272566977
aF24.173065508035823
aa(lp287
F44.15347604558235
aF17.544693245630846
aa(lp288
F45.96180956042614
aF14.244122798269713
aaag283
aF0.0001004524958177621
aI01
asS'teal'
p289
(lp290
(lp291
(lp292
F169.9982048209131
aF18.89889672718875
aa(lp293
F70.25555547704818
aF19.936541450918888
aa(lp294
F72.59035483654776
aF17.26738854027625
aaag289
aF0.021707587380540315
aI00
asS'greenish'
p295
(lp296
(lp297
(lp298
F122.81676227709774
aF34.95837190323767
aa(lp299
F64.98417615786836
aF21.254095390440273
aa(lp300
F73.37294117647001
aF15.959429527702492
aaag295
aF0.0006565522602468111
aI00
asS'green-brown'
p301
(lp302
(lp303
(lp304
F61.622026229957505
aF15.214550337830985
aa(lp305
F68.8619631162425
aF18.988961744993432
aa(lp306
F51.46863645917791
aF15.98442587468391
aaag301
aF0.0004287286259411677
aI00
asS'brown-orange'
p307
(lp308
(lp309
(lp310
F28.542715362097123
aF9.838223561491972
aa(lp311
F81.0306422886985
aF13.122975644103596
aa(lp312
F75.72877426832954
aF9.967024065061633
aaag307
aF0.00026656021766020534
aI01
asS'pinky purple'
p313
(lp314
(lp315
(lp316
F-50.79816251323832
aF18.17866657282138
aa(lp317
F67.77913775383807
aF19.89209228427305
aa(lp318
F82.01236754606764
aF12.140603880246411
aaag313
aF0.0004142844762157378
aI01
asS'bright fuchsia'
p319
(lp320
(lp321
(lp322
F-50.441165095286514
aF14.215186695593776
aa(lp323
F86.65170219261627
aF10.76738738535068
aa(lp324
F88.42681258549997
aF10.370969149675366
aaag319
aF5.6463494381225754e-05
aI01
asS'blood red'
p325
(lp326
(lp327
(lp328
F-1.7689086049940856
aF9.987203313543503
aa(lp329
F89.05852059556437
aF9.31546795694135
aa(lp330
F63.20827048768108
aF15.36941585149219
aaag325
aF0.00040968861039401014
aI01
asS'neon pink'
p331
(lp332
(lp333
(lp334
F318.7698015753268
aF14.422461009614603
aa(lp335
F84.16243442497769
aF12.128520936845073
aa(lp336
F93.63978704064554
aF6.090402784892228
aaag331
aF0.00039655756518907395
aI00
asS'navy green'
p337
(lp338
(lp339
(lp340
F117.56160071399022
aF40.65622849181747
aa(lp341
F63.7333518680561
aF22.884291780178444
aa(lp342
F43.22128851540713
aF15.20420209093983
aaag337
aF6.434212150418749e-05
aI00
asS'baby blue'
p343
(lp344
(lp345
(lp346
F197.99479829786446
aF21.868597717197332
aa(lp347
F47.62324792656279
aF21.70830940867009
aa(lp348
F90.82209760171902
aF7.343348690519294
aaag343
aF0.002265761850111745
aI00
asS'vermillion'
p349
(lp350
(lp351
(lp352
F6.44428829509034
aF46.63158065104287
aa(lp353
F83.0543502095808
aF13.550415349112374
aa(lp354
F81.2535014005625
aF14.542400293211688
aaag349
aF0.0001470677062952857
aI01
asS'darkish green'
p355
(lp356
(lp357
(lp358
F124.87075437028562
aF24.37624828878179
aa(lp359
F74.42496552196445
aF18.244612597371415
aa(lp360
F54.350552403703546
aF12.654809164181284
aaag355
aF0.0001293407952686218
aI00
asS'lavender'
p361
(lp362
(lp363
(lp364
F-78.97129846873587
aF28.810587234801716
aa(lp365
F40.35783216847177
aF18.09391766047642
aa(lp366
F83.46659913079652
aF12.024729365053158
aaag361
aF0.012047077423268738
aI01
asS'pink-red'
p367
(lp368
(lp369
(lp370
F-13.92049314504728
aF11.192197869344932
aa(lp371
F79.69717183540979
aF14.019509211212945
aa(lp372
F84.48412698413011
aF10.75193678868907
aaag367
aF0.00022060155944292854
aI01
asS'dark slate blue'
p373
(lp374
(lp375
(lp376
F217.3657893914461
aF24.384530394315078
aa(lp377
F61.696202838226554
aF20.26333897317644
aa(lp378
F43.668404070493686
aF14.755592392326626
aaag373
aF5.186762855949808e-05
aI00
asS'orangey red'
p379
(lp380
(lp381
(lp382
F9.374721139600508
aF6.880574937492579
aa(lp383
F83.22883848513109
aF10.364638911987907
aa(lp384
F86.79100908655546
aF9.106391812414746
aaag379
aF0.00010767457068047702
aI01
asS'purple-brown'
p385
(lp386
(lp387
(lp388
F-7.789445204112916
aF20.15668767898234
aa(lp389
F46.342774327822646
aF18.502123336319695
aa(lp390
F44.559339525287356
aF14.048692641140162
aaag385
aF0.0001247449294468941
aI01
asS'lightish green'
p391
(lp392
(lp393
(lp394
F120.73672420211346
aF22.96651791973269
aa(lp395
F68.94532674275453
aF17.524015919416023
aa(lp396
F82.85442661913633
aF10.164913097544513
aaag391
aF0.00010833112294072383
aI00
asS'sick green'
p397
(lp398
(lp399
(lp400
F87.1875695190323
aF25.785815998609525
aa(lp401
F68.45990946397845
aF21.074364107823076
aa(lp402
F75.05279034691233
aF15.1288111411296
aaag397
aF8.535179383208545e-05
aI01
asS'light orange'
p403
(lp404
(lp405
(lp406
F31.048730696121762
aF10.16368885463172
aa(lp407
F70.17019376590765
aF13.262008892678258
aa(lp408
F93.24098870317466
aF5.281853790692879
aaag403
aF0.0012546713693316561
aI01
asS'blue'
p409
(lp410
(lp411
(lp412
F220.75735659162308
aF25.215224079013094
aa(lp413
F76.49771786852612
aF18.497466028867503
aa(lp414
F78.22318842122532
aF15.81621969896361
aaag409
aF0.09431570184123515
aI00
asS'pale lilac'
p415
(lp416
(lp417
(lp418
F-68.41254474148172
aF41.03698281482236
aa(lp419
F21.66297059802333
aF12.077174825319343
aa(lp420
F89.2241068206399
aF8.184826708903254
aaag415
aF0.00010701801842023021
aI01
asS'rich purple'
p421
(lp422
(lp423
(lp424
F-66.11416772793899
aF27.956959537900527
aa(lp425
F77.44554238927275
aF15.556724991652914
aa(lp426
F55.60478736949091
aF18.44825147659237
aaag421
aF5.0554524039004455e-05
aI01
asS'metallic blue'
p427
(lp428
(lp429
(lp430
F207.15312352510895
aF28.415723940384993
aa(lp431
F47.786181054566576
aF22.81846004351005
aa(lp432
F65.47471620227104
aF15.022789811529043
aaag427
aF4.989797177875764e-05
aI00
asS'warm brown'
p433
(lp434
(lp435
(lp436
F22.49367998605604
aF13.031321494617613
aa(lp437
F73.73904134129108
aF17.395583169566414
aa(lp438
F54.55773420479334
aF13.443454995548334
aaag433
aF5.9089703422213004e-05
aI01
asS'dirt'
p439
(lp440
(lp441
(lp442
F35.31709792728247
aF14.500926714294208
aa(lp443
F61.1899942567429
aF20.94411553856228
aa(lp444
F57.68466290625844
aF15.383390317944887
aaag439
aF0.00014378494499405164
aI01
asS'burgundy'
p445
(lp446
(lp447
(lp448
F-13.121761091870242
aF16.50970865011133
aa(lp449
F78.35526853819827
aF15.783526161003483
aa(lp450
F49.9525126712821
aF14.015930808940833
aaag445
aF0.0024154557654480183
aI01
asS'blush pink'
p451
(lp452
(lp453
(lp454
F-7.854938079061078
aF21.15495474544542
aa(lp455
F45.738475105350936
aF17.652253318178552
aa(lp456
F90.04705882353196
aF8.844468401176641
aaag451
aF6.565522602468112e-05
aI01
asS'greenish grey'
p457
(lp458
(lp459
(lp460
F112.23507802729121
aF36.23819626488667
aa(lp461
F27.833754268100837
aF13.08811451064119
aa(lp462
F60.38949275362489
aF17.242830329061192
aaag457
aF0.000483222463541653
aI00
asS'tan brown'
p463
(lp464
(lp465
(lp466
F36.013186903950576
aF11.721483714024664
aa(lp467
F62.740538050846254
aF19.217229156628793
aa(lp468
F68.66118490407094
aF11.852320591558609
aaag463
aF6.105936020295343e-05
aI00
asS'deep teal'
p469
(lp470
(lp471
(lp472
F180.83293816331525
aF17.483591070342378
aa(lp473
F73.81735453443518
aF18.35790870597209
aa(lp474
F45.98588235293842
aF16.78315143492464
aaag469
aF8.206903253085139e-05
aI00
asS'burnt red'
p475
(lp476
(lp477
(lp478
F6.828650741052128
aF9.902298260342805
aa(lp479
F81.28471723335984
aF13.45823634335905
aa(lp480
F65.84604212055217
aF14.238822435660781
aaag475
aF0.0002127229323199668
aI01
asS'pastel pink'
p481
(lp482
(lp483
(lp484
F-22.878035021228982
aF26.91994611413497
aa(lp485
F32.94330994069756
aF13.96258549205996
aa(lp486
F91.74401655146504
aF7.022808478194926
aaag481
aF0.00027378229252292025
aI01
asS'camel'
p487
(lp488
(lp489
(lp490
F41.445409545949744
aF8.901138292437205
aa(lp491
F59.14417443393763
aF17.18497470411174
aa(lp492
F77.51504562220794
aF10.973356209835533
aaag487
aF0.00013262355656985586
aI00
asS'light kelly green'
p493
(lp494
(lp495
(lp496
F124.73557292479623
aF20.674161137342026
aa(lp497
F73.18181215407976
aF17.8487662850454
aa(lp498
F83.61420243773789
aF11.079548934211708
aaag493
aF4.8584867258264024e-05
aI01
asS'orangey brown'
p499
(lp500
(lp501
(lp502
F28.412873238013553
aF9.438287518924698
aa(lp503
F80.71922208348217
aF12.921031231135709
aa(lp504
F74.52732295667184
aF11.189647472472823
aaag499
aF0.00019105670773182204
aI00
asS'acid green'
p505
(lp506
(lp507
(lp508
F99.75203832378064
aF22.124327270123768
aa(lp509
F84.54449583382461
aF12.257938140761397
aa(lp510
F88.15078893510271
aF10.106256827787705
aaag505
aF0.0001949960212933029
aI00
asS'bright aqua'
p511
(lp512
(lp513
(lp514
F173.72356855766913
aF14.021110503031954
aa(lp515
F81.3226906524758
aF13.696466911178026
aa(lp516
F92.06561832653863
aF6.953531257825601
aaag511
aF0.00013262355656985586
aI00
asS'barbie pink'
p517
(lp518
(lp519
(lp520
F-38.56030808215956
aF14.148941378355634
aa(lp521
F70.76502100139616
aF17.420162091427148
aa(lp522
F92.7112914131172
aF6.143805731515815
aaag517
aF0.00017136013992441771
aI01
asS'baby pink'
p523
(lp524
(lp525
(lp526
F-25.00594248293752
aF24.223328197869826
aa(lp527
F31.675930024297884
aF13.160503763358072
aa(lp528
F94.63566507684453
aF4.526621836901561
aaag523
aF0.0003886789380661122
aI01
asS'bluey grey'
p529
(lp530
(lp531
(lp532
F195.46423057149258
aF38.11009141744039
aa(lp533
F27.40855658978956
aF14.926280860571147
aa(lp534
F64.74850809889458
aF15.911475570088715
aaag529
aF6.040280794270662e-05
aI00
asS'dark navy'
p535
(lp536
(lp537
(lp538
F232.02706492462536
aF23.96699436447896
aa(lp539
F70.88964277157912
aF21.618281216294793
aa(lp540
F27.656933276911648
aF11.073635388277168
aaag535
aF9.126076417430675e-05
aI00
asS'skin colour'
p541
(lp542
(lp543
(lp544
F27.53702209475728
aF14.877965059623623
aa(lp545
F38.088727213907795
aF11.462321262400426
aa(lp546
F92.538833715313
aF6.862555645383564
aaag541
aF5.0554524039004455e-05
aI01
asS'leafy green'
p547
(lp548
(lp549
(lp550
F112.17918639579109
aF23.514775429334296
aa(lp551
F74.87882849982141
aF18.528071290350045
aa(lp552
F69.51330532213214
aF14.710526394236908
aaag547
aF7.353385314764285e-05
aI00
asS'dark tan'
p553
(lp554
(lp555
(lp556
F37.75672106178647
aF13.049525816447908
aa(lp557
F60.26119989331238
aF19.579950679087776
aa(lp558
F68.16627041951101
aF13.28116453745767
aaag553
aF0.0005035755836093041
aI01
asS'pear'
p559
(lp560
(lp561
(lp562
F73.01979551931318
aF15.342161286961074
aa(lp563
F67.47388259928596
aF18.710516131823493
aa(lp564
F86.38802889577195
aF9.897008871795743
aaag559
aF7.484695766813646e-05
aI00
asS'neon yellow'
p565
(lp566
(lp567
(lp568
F70.3038044935888
aF7.362550940824743
aa(lp569
F84.22504768595003
aF11.977091710158842
aa(lp570
F95.95306975249183
aF3.376175004801127
aaag565
aF8.009937575011095e-05
aI00
asS'cool grey'
p571
(lp572
(lp573
(lp574
F195.77660155110937
aF60.970706385762284
aa(lp575
F20.6338636766013
aF11.812462491130534
aa(lp576
F64.7975553857844
aF16.24862823738665
aaag571
aF5.0554524039004455e-05
aI00
asS'dark khaki'
p577
(lp578
(lp579
(lp580
F51.8364253094785
aF19.13347729346709
aa(lp581
F55.49316527856782
aF20.59852763238179
aa(lp582
F55.67049808428736
aF17.01361606709866
aaag577
aF0.00011424009328294513
aI01
asS'mud brown'
p583
(lp584
(lp585
(lp586
F35.28124131593124
aF14.877515095145748
aa(lp587
F68.09411239846857
aF19.428677766879677
aa(lp588
F49.56504429182591
aF15.017725541509304
aaag583
aF0.0001293407952686218
aI01
asS'dusty rose'
p589
(lp590
(lp591
(lp592
F-8.92598270576034
aF18.912118355485994
aa(lp593
F43.45427886845165
aF14.80944051380846
aa(lp594
F77.54879000780615
aF10.87036852638483
aaag589
aF0.0008410434453761651
aI01
asS'weird'
p595
(lp596
(lp597
(lp598
F17.209271499404906
aF87.97034510538035
aa(lp599
F52.89092948807256
aF22.325931166277407
aa(lp600
F75.9719887955257
aF15.57748288374256
aaag595
aF4.595865821727678e-05
aI01
asS'dark rose'
p601
(lp602
(lp603
(lp604
F-15.64927014980271
aF14.94196401408757
aa(lp605
F64.36406345571444
aF18.075594235121184
aa(lp606
F70.97584979937645
aF12.838149581210624
aaag601
aF0.0003400940708078482
aI01
asS'golden'
p607
(lp608
(lp609
(lp610
F46.84212725806163
aF7.0458744505939475
aa(lp611
F82.56299739850925
aF12.776461453452072
aa(lp612
F87.19758672699461
aF10.831009453084476
aaag607
aF8.535179383208545e-05
aI00
asS'dark peach'
p613
(lp614
(lp615
(lp616
F15.929829878394772
aF11.128501292495
aa(lp617
F56.38724177202801
aF13.829888357698135
aa(lp618
F85.50863909920345
aF8.339882461666466
aaag613
aF0.0002652471131397117
aI01
asS'dried blood'
p619
(lp620
(lp621
(lp622
F0.46428886747276493
aF13.38793060515763
aa(lp623
F75.0938441837262
aF19.010132906577738
aa(lp624
F45.93837535014405
aF14.934622280710105
aaag619
aF5.5150389860732136e-05
aI01
asS'orangish'
p625
(lp626
(lp627
(lp628
F25.260628751544658
aF12.499598623858295
aa(lp629
F75.42793966860663
aF13.015297516305456
aa(lp630
F87.86899375134944
aF10.282530443840537
aaag625
aF5.974625568245981e-05
aI01
asS'sienna'
p631
(lp632
(lp633
(lp634
F24.160620717936666
aF16.83755798587987
aa(lp635
F76.0654951772111
aF16.31595465960867
aa(lp636
F67.65103722648392
aF14.61980247033821
aaag631
aF0.00045302105957029966
aI01
asS'hot green'
p637
(lp638
(lp639
(lp640
F111.67361894879409
aF19.640595691227666
aa(lp641
F85.46883405544379
aF11.489695935931078
aa(lp642
F91.18133203695204
aF8.111298969558938
aaag637
aF7.944282348986415e-05
aI00
asS'dodger blue'
p643
(lp644
(lp645
(lp646
F216.48391225867738
aF16.892777792733067
aa(lp647
F77.64220800187526
aF16.96745847728092
aa(lp648
F81.17647058823334
aF16.083110245201464
aaag643
aF6.105936020295343e-05
aI00
asS'light mint green'
p649
(lp650
(lp651
(lp652
F130.25683438397402
aF22.155849503937972
aa(lp653
F41.69964330855748
aF20.218470464390858
aa(lp654
F89.21784098254506
aF7.742594873437467
aaag649
aF5.974625568245981e-05
aI00
asS'booger green'
p655
(lp656
(lp657
(lp658
F79.73741901953187
aF22.732882413988275
aa(lp659
F75.52636382965814
aF19.198329339501544
aa(lp660
F70.74191838897701
aF12.29384465517015
aaag655
aF4.8584867258264024e-05
aI00
asS'seafoam'
p661
(lp662
(lp663
(lp664
F146.4444735300383
aF22.035807457131842
aa(lp665
F56.54611571834636
aF22.675804889915955
aa(lp666
F85.93964311591148
aF11.22943898142063
aaag661
aF0.002292023940521618
aI00
asS'lime'
p667
(lp668
(lp669
(lp670
F95.69203950795388
aF20.058773629467982
aa(lp671
F77.62632431869822
aF16.408177555079007
aa(lp672
F89.28002297972706
aF8.493030096461009
aaag667
aF0.003943909427302594
aI00
asS'celery'
p673
(lp674
(lp675
(lp676
F90.27880567430303
aF19.93094903016592
aa(lp677
F49.505605626430814
aF20.247657982322373
aa(lp678
F88.00945378150978
aF9.162516841848106
aaag673
aF0.0001470677062952857
aI00
asS'fluorescent green'
p679
(lp680
(lp681
(lp682
F109.91174444156196
aF18.680650730111154
aa(lp683
F86.36696549778182
aF10.282299021504656
aa(lp684
F93.52053016328671
aF6.323492059672883
aaag679
aF0.00018843049869083479
aI00
asS'bright lime green'
p685
(lp686
(lp687
(lp688
F101.73242565856151
aF18.68385027534365
aa(lp689
F86.11529492226803
aF11.164929542178175
aa(lp690
F92.99890514581722
aF5.478433771042761
aaag685
aF0.0001293407952686218
aI01
asS'cerulean blue'
p691
(lp692
(lp693
(lp694
F213.6168397805372
aF20.742394643924523
aa(lp695
F77.54444827881102
aF16.673635450647172
aa(lp696
F79.61090686274571
aF15.418244416739984
aaag691
aF0.00016807737862318365
aI00
asS'puke'
p697
(lp698
(lp699
(lp700
F64.3447423726251
aF25.61086485731842
aa(lp701
F72.44823277016405
aF20.17997251320723
aa(lp702
F71.20436952336047
aF14.88030104440681
aaag697
aF0.0009828587335894764
aI01
asS'algae'
p703
(lp704
(lp705
(lp706
F123.83021242324
aF31.431970804015112
aa(lp707
F63.269043715788904
aF23.012231812311242
aa(lp708
F72.05519244735075
aF19.227665385865485
aaag703
aF5.31807330799917e-05
aI00
asS'pine green'
p709
(lp710
(lp711
(lp712
F126.85231805139657
aF28.414108312668176
aa(lp713
F70.70093585353558
aF18.838482431264907
aa(lp714
F46.949562957713844
aF15.366555215539465
aaag709
aF0.0004359507008038826
aI00
asS'light yellow green'
p715
(lp716
(lp717
(lp718
F84.99450227280933
aF17.053795047824778
aa(lp719
F57.19596413230456
aF17.477398754914738
aa(lp720
F90.89916872897945
aF7.459316637985578
aaag715
aF0.00020287464841626463
aI01
asS'blueberry'
p721
(lp722
(lp723
(lp724
F248.3728768215941
aF26.123640445378722
aa(lp725
F70.58482588068503
aF17.1013202737771
aa(lp726
F70.13169446883431
aF19.58735798687323
aaag721
aF8.797800287307269e-05
aI00
asS'dirty blue'
p727
(lp728
(lp729
(lp730
F194.74672225050247
aF22.3890240041703
aa(lp731
F56.424423926136974
aF20.743655317938792
aa(lp732
F63.35750738651505
aF13.395124126373746
aaag727
aF4.792831499801721e-05
aI00
asS'charcoal'
p733
(lp734
(lp735
(lp736
F161.95966789034057
aF97.37340961794315
aa(lp737
F32.670633599886166
aF20.778838605809362
aa(lp738
F29.34714435046926
aF13.121647883630402
aaag733
aF0.0004064058490927761
aI00
asS'brick orange'
p739
(lp740
(lp741
(lp742
F17.826293759468573
aF7.45363243884035
aa(lp743
F85.78151660128272
aF9.47971759785861
aa(lp744
F80.40668119099874
aF8.581432350020783
aaag739
aF5.31807330799917e-05
aI01
asS'yuck'
p745
(lp746
(lp747
(lp748
F55.12097785638834
aF59.24460315542675
aa(lp749
F63.94233903131184
aF21.840820548308415
aa(lp750
F72.38506702115819
aF16.75611345749922
aaag745
aF0.00011620975006368557
aI01
asS'pretty'
p751
(lp752
(lp753
(lp754
F238.72373523633604
aF72.33625783854876
aa(lp755
F68.33167565428778
aF21.994590113769377
aa(lp756
F69.13033448673761
aF18.907120409256542
aaag751
aF5.580694212097895e-05
aI00
asS'ice blue'
p757
(lp758
(lp759
(lp760
F183.45490477888077
aF29.38357959376985
aa(lp761
F33.71454091227137
aF22.043756166451075
aa(lp762
F91.865044525274
aF7.676119955624616
aaag757
aF0.0003079230100557544
aI00
asS'navy blue'
p763
(lp764
(lp765
(lp766
F230.33886053961885
aF20.286315061109313
aa(lp767
F76.59166240399539
aF17.725065313572003
aa(lp768
F42.25247946113164
aF15.633691891605206
aaag763
aF0.004915606772467875
aI00
asS'electric purple'
p769
(lp770
(lp771
(lp772
F-75.79350300293059
aF16.339566351811083
aa(lp773
F82.03281009706271
aF13.726247984899844
aa(lp774
F85.2601156069382
aF11.126956518707493
aaag769
aF0.00022716708204539664
aI01
asS'tangerine'
p775
(lp776
(lp777
(lp778
F26.978894439820255
aF12.636562642297253
aa(lp779
F79.13018419312561
aF13.62995060722898
aa(lp780
F93.05215249852029
aF6.170377765750466
aaag775
aF0.0004129713716952442
aI01
asS'light salmon'
p781
(lp782
(lp783
(lp784
F10.191979901102789
aF17.19202894432717
aa(lp785
F39.8148997879815
aF14.879548532234072
aa(lp786
F93.6663980660767
aF5.682770965037708
aaag781
aF9.585662999603442e-05
aI01
asS'light aqua'
p787
(lp788
(lp789
(lp790
F164.52478337748425
aF19.29953332078657
aa(lp791
F52.49201425159242
aF21.82981570507554
aa(lp792
F90.55968747652481
aF8.141337984406238
aaag787
aF0.00034272027984883543
aI00
asS'chocolate'
p793
(lp794
(lp795
(lp796
F16.852563037807865
aF18.324707281568248
aa(lp797
F67.01833862705858
aF21.407938026564363
aa(lp798
F38.9206105895137
aF14.297292674042682
aaag793
aF0.000403123087791542
aI01
asS'grassy green'
p799
(lp800
(lp801
(lp802
F111.65169694126655
aF22.178987486417853
aa(lp803
F79.11906195571636
aF15.083358365753076
aa(lp804
F71.29479377957587
aF12.772189423688655
aaag799
aF7.616006218863009e-05
aI01
asS'melon'
p805
(lp806
(lp807
(lp808
F31.341259725526
aF38.753144367422614
aa(lp809
F64.90182136611638
aF14.78674555776011
aa(lp810
F92.0090003214405
aF7.397382529392818
aaag805
aF0.0001601987515002219
aI01
asS'flat green'
p811
(lp812
(lp813
(lp814
F118.87783787791459
aF25.64588756163341
aa(lp815
F60.366150255506774
aF21.458443429806906
aa(lp816
F66.48648648648378
aF13.618202713941452
aaag811
aF4.8584867258264024e-05
aI00
asS'olive'
p817
(lp818
(lp819
(lp820
F73.32510194434543
aF19.557846510367124
aa(lp821
F65.86981792345594
aF20.912889245644465
aa(lp822
F58.969569000663
aF15.662040274070478
aaag817
aF0.006346890699805923
aI01
asS'pale salmon'
p823
(lp824
(lp825
(lp826
F10.069912819576453
aF17.433751960929055
aa(lp827
F40.13749943720652
aF13.65079244796738
aa(lp828
F93.63571934798193
aF4.411756957742269
aaag823
aF5.4493837600485324e-05
aI01
asS'spearmint'
p829
(lp830
(lp831
(lp832
F137.05975485534643
aF21.91975770618394
aa(lp833
F67.89485172759177
aF20.903493155805272
aa(lp834
F84.93599092529173
aF11.393670496432819
aaag829
aF7.944282348986415e-05
aI00
asS'dark cream'
p835
(lp836
(lp837
(lp838
F47.728143822682284
aF15.65611577161879
aa(lp839
F38.021974954532304
aF14.693303736199375
aa(lp840
F89.04201680672571
aF7.901988090476558
aaag835
aF4.595865821727678e-05
aI01
asS'flat blue'
p841
(lp842
(lp843
(lp844
F217.17127940819427
aF21.986287804603805
aa(lp845
F68.25861917820359
aF19.63893729890279
aa(lp846
F71.14103472714096
aF14.455755978207673
aaag841
aF5.4493837600485324e-05
aI00
asS'almost black'
p847
(lp848
(lp849
(lp850
F194.32954519799804
aF96.20129631293139
aa(lp851
F51.93379416159416
aF25.444438686230804
aa(lp852
F18.878347037738603
aF6.581060769736636
aaag847
aF6.105936020295343e-05
aI00
asS'barf green'
p853
(lp854
(lp855
(lp856
F78.7184449488257
aF22.687134777659242
aa(lp857
F72.56680659998777
aF18.8158001657408
aa(lp858
F66.1064425770296
aF15.66805664788285
aaag853
aF6.434212150418749e-05
aI00
asS'yellow tan'
p859
(lp860
(lp861
(lp862
F51.3145091072089
aF10.446048834003038
aa(lp863
F60.13020888172718
aF17.590718861512954
aa(lp864
F87.09271362866046
aF8.939196681198466
aaag859
aF5.31807330799917e-05
aI00
asS'coral'
p865
(lp866
(lp867
(lp868
F4.400100842851389
aF20.379745605925596
aa(lp869
F64.1918789008948
aF14.348214929226792
aa(lp870
F91.01184701766825
aF7.619851435024847
aaag865
aF0.000875840715169246
aI01
asS'grape'
p871
(lp872
(lp873
(lp874
F-63.611707129232194
aF31.281182227975147
aa(lp875
F66.5226880196785
aF20.320140756212947
aa(lp876
F57.95663753195139
aF18.04083343890454
aaag871
aF0.0007202378294907518
aI01
asS'darker pink'
p877
(lp878
(lp879
(lp880
F-29.685133786054074
aF23.46178883590073
aa(lp881
F67.15726363412702
aF15.812962356117888
aa(lp882
F79.51598657481259
aF12.008076290299272
aaag877
aF7.287730088739604e-05
aI01
asS'light bright green'
p883
(lp884
(lp885
(lp886
F118.77377659567001
aF24.436385371383953
aa(lp887
F75.53935448423749
aF15.893045353124691
aa(lp888
F91.8300653594847
aF6.922244407747118
aaag883
aF4.72717627377704e-05
aI01
asS'dull orange'
p889
(lp890
(lp891
(lp892
F27.843456111505823
aF10.286081253686325
aa(lp893
F75.64148915976843
aF13.359906315747965
aa(lp894
F85.87583870757818
aF7.459817946969696
aaag889
aF0.00019762223033429016
aI00
asS'dark lavender'
p895
(lp896
(lp897
(lp898
F-75.63085599345695
aF30.585671851567064
aa(lp899
F48.58003935061737
aF19.57503287404844
aa(lp900
F70.40887040887064
aF15.331183038170458
aaag895
aF0.0006316032743574323
aI01
asS'adobe'
p901
(lp902
(lp903
(lp904
F20.072301560062595
aF14.056323188722576
aa(lp905
F63.673244454692075
aF17.008929273642362
aa(lp906
F76.17793386011093
aF12.287604313671892
aaag901
aF0.00013196700430960904
aI01
asS'deep aqua'
p907
(lp908
(lp909
(lp910
F179.58234899311714
aF16.138250352019796
aa(lp911
F77.34701981504287
aF14.556564793591301
aa(lp912
F68.45378151260572
aF17.52721656578806
aaag907
aF4.595865821727678e-05
aI00
asS'dark hot pink'
p913
(lp914
(lp915
(lp916
F327.7996436647113
aF13.93898972583154
aa(lp917
F85.58898229732141
aF11.262349254220105
aa(lp918
F84.42577030812501
aF8.921352421129878
aaag913
aF5.5150389860732136e-05
aI00
asS'deep magenta'
p919
(lp920
(lp921
(lp922
F-35.94820829062378
aF16.39387806733675
aa(lp923
F84.56335202173821
aF12.135543592662344
aa(lp924
F63.08461639689665
aF16.349302322284476
aaag919
aF9.782628677677486e-05
aI01
asS'light tan'
p925
(lp926
(lp927
(lp928
F46.448905281353184
aF14.99299872786002
aa(lp929
F40.20518712165661
aF16.684547661310223
aa(lp930
F87.33225400252043
aF8.594764584987344
aaag925
aF0.00028625678546760966
aI01
asS'dark blue-green'
p931
(lp932
(lp933
(lp934
F171.21753776537963
aF20.482925494408548
aa(lp935
F69.69933579651615
aF20.134501815751868
aa(lp936
F39.6253569388902
aF13.32522315034575
aaag931
aF0.0003381244140271077
aI00
asS'swamp green'
p937
(lp938
(lp939
(lp940
F88.0825258967064
aF30.053602497525702
aa(lp941
F67.94802318823291
aF22.617968551819395
aa(lp942
F56.49839040093919
aF16.83344830648289
aaag937
aF0.00017595600574614537
aI01
asS'pink'
p943
(lp944
(lp945
(lp946
F-31.94087545591747
aF21.314079397591463
aa(lp947
F60.715676311767794
aF21.508454468808722
aa(lp948
F90.01375810360254
aF8.251031137058805
aaag943
aF0.0417232395864246
aI01
asS'warm grey'
p949
(lp950
(lp951
(lp952
F21.234440944319427
aF66.97098438833191
aa(lp953
F18.6785935987771
aF10.415957164663912
aa(lp954
F62.689075630251374
aF15.875898431072972
aaag949
aF0.0001470677062952857
aI01
asS'primary blue'
p955
(lp956
(lp957
(lp958
F235.28400035130682
aF11.115790595656783
aa(lp959
F89.93898465890679
aF8.757577948944657
aa(lp960
F81.9729757187865
aF12.766510774714448
aaag955
aF0.00012671458622763454
aI00
asS'light mustard'
p961
(lp962
(lp963
(lp964
F54.87630596390484
aF9.624806211019479
aa(lp965
F62.28775024399404
aF16.34467861053857
aa(lp966
F87.65882352940702
aF8.031551583482793
aaag961
aF6.565522602468112e-05
aI00
asS'lime yellow'
p967
(lp968
(lp969
(lp970
F70.56286472333032
aF7.955111699100121
aa(lp971
F73.59415720950756
aF17.066012670344115
aa(lp972
F93.63693864642259
aF5.122189035856922
aaag967
aF6.105936020295343e-05
aI00
asS'dark turquoise'
p973
(lp974
(lp975
(lp976
F176.17110851670913
aF17.414841403765188
aa(lp977
F72.26358874722222
aF19.30937653628409
aa(lp978
F51.637669152168506
aF16.181629788897542
aaag973
aF0.0006059977362078067
aI00
asS'deep lavender'
p979
(lp980
(lp981
(lp982
F-79.76406697798909
aF26.879562331028268
aa(lp983
F55.54176237690451
aF18.953683579507544
aa(lp984
F73.64081996435112
aF16.935800054606585
aaag979
aF5.777659890171938e-05
aI01
asS'bright lilac'
p985
(lp986
(lp987
(lp988
F284.0303957774036
aF15.877926588256328
aa(lp989
F64.49994299088348
aF16.292743919857166
aa(lp990
F89.44774239971375
aF8.514616655346853
aaag985
aF7.156419636690242e-05
aI00
asS'sandstone'
p991
(lp992
(lp993
(lp994
F38.50216335761542
aF21.368365117752173
aa(lp995
F45.169328720113555
aF18.795802569987195
aa(lp996
F78.76832286312425
aF11.663468134950945
aaag991
aF0.00013524976561084308
aI01
asS'pine'
p997
(lp998
(lp999
(lp1000
F124.12139255375202
aF35.63962321294638
aa(lp1001
F65.1483435603192
aF20.71626982893546
aa(lp1002
F48.53671664744234
aF16.679247105691573
aaag997
aF0.00016742082636293684
aI00
asS'merlot'
p1003
(lp1004
(lp1005
(lp1006
F-21.982945506187143
aF17.53336669706069
aa(lp1007
F78.51634004074482
aF14.832493622611148
aa(lp1008
F48.931710615278455
aF15.178048690947591
aaag1003
aF7.616006218863009e-05
aI01
asS'soft blue'
p1009
(lp1010
(lp1011
(lp1012
F218.9815079862222
aF20.889783501115975
aa(lp1013
F57.88188873419825
aF18.789755854818704
aa(lp1014
F80.4747162022685
aF12.62698023854206
aaag1009
aF0.00014969391533627293
aI00
asS'dull green'
p1015
(lp1016
(lp1017
(lp1018
F111.58753973715166
aF29.010177471985227
aa(lp1019
F53.54900578154327
aF19.28771613714457
aa(lp1020
F65.20964291228204
aF14.035451103551397
aaag1015
aF0.0005836749593594151
aI00
asS'night blue'
p1021
(lp1022
(lp1023
(lp1024
F232.744045361523
aF19.995588202312312
aa(lp1025
F75.08862473303927
aF17.366002077590604
aa(lp1026
F44.17969719533165
aF18.27890509620838
aaag1021
aF5.186762855949808e-05
aI00
asS'yellowish'
p1027
(lp1028
(lp1029
(lp1030
F58.70223595118647
aF11.046433829194411
aa(lp1031
F67.51397201225426
aF18.125991244140387
aa(lp1032
F87.71011488295771
aF8.6576650243919
aaag1027
aF0.00014903736307602612
aI01
asS'teal green'
p1033
(lp1034
(lp1035
(lp1036
F151.8930012469081
aF18.04906295937563
aa(lp1037
F71.3763247096821
aF18.651082949244824
aa(lp1038
F70.77798861480066
aF17.47945454817896
aaag1033
aF0.0003256499210824183
aI00
asS'bubblegum pink'
p1039
(lp1040
(lp1041
(lp1042
F-33.33200962703228
aF17.381321326785415
aa(lp1043
F53.82302815623994
aF15.55198649864777
aa(lp1044
F94.04720601377632
aF5.682057183378094
aaag1039
aF0.00024489399307206055
aI01
asS'pale purple'
p1045
(lp1046
(lp1047
(lp1048
F-71.92110279768993
aF32.57107232752791
aa(lp1049
F36.50190954657509
aF17.009220897646934
aa(lp1050
F80.15614973262144
aF14.063199271784262
aaag1045
aF0.0010833112294072384
aI01
asS'lipstick red'
p1051
(lp1052
(lp1053
(lp1054
F-10.453568153673038
aF9.034897111695297
aa(lp1055
F87.81310652711443
aF8.707181242002031
aa(lp1056
F75.86056644879999
aF12.877125591062066
aaag1051
aF5.9089703422213004e-05
aI01
asS'seafoam green'
p1057
(lp1058
(lp1059
(lp1060
F143.0086268581961
aF20.569723638278216
aa(lp1061
F58.557813681226996
aF22.164158224025385
aa(lp1062
F86.61479406577511
aF10.72745483133001
aaag1057
aF0.0034744745612261246
aI00
asS'hunter green'
p1063
(lp1064
(lp1065
(lp1066
F120.67597039768512
aF28.857980649315014
aa(lp1067
F71.40258446915857
aF19.31988468129431
aa(lp1068
F40.238923923406205
aF13.134160403278985
aaag1063
aF0.0011207347082413065
aI00
asS'blood'
p1069
(lp1070
(lp1071
(lp1072
F-6.046235830944968
aF32.234279533580946
aa(lp1073
F82.58879691349225
aF16.90893425581263
aa(lp1074
F61.57876943880949
aF16.686935232086398
aaag1069
aF7.616006218863009e-05
aI01
asS'light pea green'
p1075
(lp1076
(lp1077
(lp1078
F87.80533755479067
aF18.03717395042406
aa(lp1079
F53.66536556136622
aF19.58517331241958
aa(lp1080
F84.83829895594806
aF9.88064916126754
aaag1075
aF5.0554524039004455e-05
aI01
asS'pale lime'
p1081
(lp1082
(lp1083
(lp1084
F93.80586984362745
aF22.71409666459762
aa(lp1085
F52.72337526939216
aF17.564020911258837
aa(lp1086
F91.27731092437072
aF6.378148185055218
aaag1081
aF9.191731643455356e-05
aI00
asS'kiwi green'
p1087
(lp1088
(lp1089
(lp1090
F96.22585867611497
aF20.936654530809214
aa(lp1091
F71.78185467835137
aF15.319817121810814
aa(lp1092
F83.85076252723746
aF11.948156909695705
aaag1087
aF4.72717627377704e-05
aI01
asS'lighter purple'
p1093
(lp1094
(lp1095
(lp1096
F-73.11742306623508
aF21.55796015495259
aa(lp1097
F59.374008644287265
aF22.302850777633555
aa(lp1098
F81.56862745098086
aF12.727489092431055
aaag1093
aF0.00014378494499405164
aI01
asS'very dark green'
p1099
(lp1100
(lp1101
(lp1102
F124.17205234607654
aF37.42136628685754
aa(lp1103
F66.93541334619145
aF23.198525949276792
aa(lp1104
F22.752567693745675
aF8.737768669068737
aaag1099
aF0.00013787597465183033
aI00
asS'tomato'
p1105
(lp1106
(lp1107
(lp1108
F5.0465403082628635
aF8.78323837482439
aa(lp1109
F83.82394388991607
aF12.077011478033302
aa(lp1110
F85.29761904761601
aF9.982133148422971
aaag1105
aF7.353385314764285e-05
aI01
asS'weird green'
p1111
(lp1112
(lp1113
(lp1114
F119.38515742619576
aF31.06231042413602
aa(lp1115
F68.52633287820704
aF20.395505223717876
aa(lp1116
F74.30219146482118
aF17.26670333925408
aaag1111
aF5.580694212097895e-05
aI00
asS'off yellow'
p1117
(lp1118
(lp1119
(lp1120
F61.539889883599564
aF9.945166603717844
aa(lp1121
F72.4562007144098
aF17.870713136758912
aa(lp1122
F88.91304347826416
aF9.119522080003286
aaag1117
aF6.040280794270662e-05
aI00
asS'light aquamarine'
p1123
(lp1124
(lp1125
(lp1126
F163.857265544576
aF19.45356891116566
aa(lp1127
F53.71733575340556
aF21.69930267510622
aa(lp1128
F89.49455337690445
aF8.19149978841659
aaag1123
aF5.9089703422213004e-05
aI00
asS'poop brown'
p1129
(lp1130
(lp1131
(lp1132
F39.12641565537262
aF12.948915022095077
aa(lp1133
F79.35803930602354
aF15.330964056098423
aa(lp1134
F52.55363321799148
aF15.189390245131307
aaag1129
aF0.0002232277684839158
aI01
asS'bright light blue'
p1135
(lp1136
(lp1137
(lp1138
F188.92271363777598
aF14.964967676295217
aa(lp1139
F77.72262504941347
aF16.237729296804893
aa(lp1140
F92.96647691334738
aF5.942709942000354
aaag1135
aF0.00012211872040590686
aI00
asS'chocolate brown'
p1141
(lp1142
(lp1143
(lp1144
F18.512972139925616
aF18.771503946859642
aa(lp1145
F67.12583682397711
aF20.476688417625823
aa(lp1146
F36.96907618768899
aF13.725928407984172
aaag1141
aF0.0002639340086192181
aI01
asS'mango'
p1147
(lp1148
(lp1149
(lp1150
F30.30657868151371
aF16.702293824983695
aa(lp1151
F74.8914425375928
aF14.025945344077458
aa(lp1152
F93.67956191485585
aF5.972166899284551
aaag1147
aF7.287730088739604e-05
aI01
asS'green'
p1153
(lp1154
(lp1155
(lp1156
F116.8963576292738
aF25.878002019444878
aa(lp1157
F75.20957746959687
aF18.507530441065313
aa(lp1158
F72.71068146911054
aF17.14130162650138
aaag1153
aF0.10042163786153051
aI00
asS'bright turquoise'
p1159
(lp1160
(lp1161
(lp1162
F173.9134434427988
aF13.637091247874695
aa(lp1163
F81.49465549076736
aF13.74918292411298
aa(lp1164
F92.5587425052678
aF6.871228926956269
aaag1159
aF0.0001588856469797283
aI00
asS'red violet'
p1165
(lp1166
(lp1167
(lp1168
F-38.41639406314374
aF18.997588264756263
aa(lp1169
F79.97264499163282
aF13.693390591460988
aa(lp1170
F67.24629040805506
aF14.91361594221043
aaag1165
aF0.0003886789380661122
aI01
asS'easter purple'
p1171
(lp1172
(lp1173
(lp1174
F-79.51796674472133
aF19.68716867060362
aa(lp1175
F50.66733518763721
aF19.67263148269094
aa(lp1176
F84.30460556315407
aF11.284226546125284
aaag1171
aF0.00011292698876245151
aI01
asS'flourescent green'
p1177
(lp1178
(lp1179
(lp1180
F112.64606548647262
aF19.498304613062963
aa(lp1181
F85.21199026352518
aF10.907555807786208
aa(lp1182
F93.60342812622119
aF5.2625336188382095
aaag1177
aF9.913939129726849e-05
aI00
asS'rich blue'
p1183
(lp1184
(lp1185
(lp1186
F232.14648542193768
aF18.7624753771081
aa(lp1187
F85.89889795932959
aF10.638089931706004
aa(lp1188
F74.92616799806049
aF16.874095663538725
aaag1183
aF5.31807330799917e-05
aI00
asS'khaki green'
p1189
(lp1190
(lp1191
(lp1192
F81.30428937551926
aF21.354698260188567
aa(lp1193
F55.7160167195911
aF22.0344529825981
aa(lp1194
F58.95344640924199
aF15.598549069024775
aaag1189
aF0.00021403603684046042
aI00
asS'cadet blue'
p1195
(lp1196
(lp1197
(lp1198
F208.8134412842324
aF24.446698595209522
aa(lp1199
F53.8881635170705
aF22.104471014244176
aa(lp1200
F62.00555812876437
aF15.816613221861568
aaag1195
aF0.00033352854820538005
aI00
asS'battleship grey'
p1201
(lp1202
(lp1203
(lp1204
F194.36114180881518
aF68.12972492237942
aa(lp1205
F23.445976824694654
aF12.397714317866567
aa(lp1206
F58.66887600110844
aF15.182818082087952
aaag1201
aF4.661521047752359e-05
aI00
asS'poop green'
p1207
(lp1208
(lp1209
(lp1210
F70.52811298177453
aF17.717440646853944
aa(lp1211
F76.1817797457077
aF16.95172880995151
aa(lp1212
F56.94462400344944
aF17.656059997826222
aaag1207
aF5.974625568245981e-05
aI01
asS'irish green'
p1213
(lp1214
(lp1215
(lp1216
F127.91592187168924
aF19.748321970739322
aa(lp1217
F80.09830784740497
aF15.492152802373667
aa(lp1218
F69.19254658385157
aF13.605779236244262
aaag1213
aF0.00010570491389973658
aI00
asS'dark olive'
p1219
(lp1220
(lp1221
(lp1222
F74.8496824878571
aF24.811254108200362
aa(lp1223
F67.55196209023401
aF21.566771769352737
aa(lp1224
F39.36033429765246
aF13.463037033196303
aaag1219
aF0.00040049687875055477
aI01
asS'midnight'
p1225
(lp1226
(lp1227
(lp1228
F235.25600641364798
aF50.59636875610355
aa(lp1229
F66.12607372729192
aF23.195529940686733
aa(lp1230
F32.594064652886075
aF16.58579610811057
aaag1225
aF9.716973451652805e-05
aI00
asS'indigo blue'
p1231
(lp1232
(lp1233
(lp1234
F243.60599877468772
aF17.273006374372464
aa(lp1235
F75.4460833496844
aF15.874731374488558
aa(lp1236
F71.70359052712209
aF20.007844089064953
aaag1231
aF5.0554524039004455e-05
aI00
asS'canary'
p1237
(lp1238
(lp1239
(lp1240
F57.53612234603221
aF7.497265578575388
aa(lp1241
F71.76056840094677
aF16.052948806153918
aa(lp1242
F95.29411764706494
aF4.61762583816965
aaag1237
aF5.0554524039004455e-05
aI00
asS'auburn'
p1243
(lp1244
(lp1245
(lp1246
F12.540908396437835
aF16.150169298915287
aa(lp1247
F81.03314058104588
aF15.519972953133127
aa(lp1248
F62.72895040368998
aF16.12396039996893
aaag1243
aF0.0001116138842419579
aI01
asS'grey-brown'
p1249
(lp1250
(lp1251
(lp1252
F34.960755461069915
aF26.536152548726243
aa(lp1253
F33.29270204583385
aF14.18927958375462
aa(lp1254
F52.88094760088237
aF14.426809237353641
aaag1249
aF0.0005771094367569469
aI01
asS'orange-red'
p1255
(lp1256
(lp1257
(lp1258
F10.36812382577551
aF7.271940457531929
aa(lp1259
F83.64039804334885
aF10.85585248472546
aa(lp1260
F87.37812064716654
aF8.884665820745317
aaag1255
aF0.0007208943817509986
aI01
asS'cyan'
p1261
(lp1262
(lp1263
(lp1264
F179.310915496546
aF19.53603282377155
aa(lp1265
F71.25455114599046
aF19.50947531026406
aa(lp1266
F89.37970032770095
aF10.01528199370392
aaag1261
aF0.007845142957689146
aI00
asS'spam'
p1267
(lp1268
(lp1269
(lp1270
F176.5853449438702
aF103.44131312154437
aa(lp1271
F62.72643761726015
aF22.111681671885883
aa(lp1272
F75.44744213475039
aF18.179993766954325
aaag1267
aF8.732145061282587e-05
aI00
asS'pink-purple'
p1273
(lp1274
(lp1275
(lp1276
F-49.14707423578105
aF17.604252017829083
aa(lp1277
F66.77624219541619
aF20.71219340155538
aa(lp1278
F83.06465530066241
aF10.718379387384154
aaag1273
aF0.0008653358790052971
aI01
asS'bright lime'
p1279
(lp1280
(lp1281
(lp1282
F100.7519680566673
aF21.348414741546407
aa(lp1283
F84.49623773615511
aF12.604100871581306
aa(lp1284
F91.63276525563647
aF6.308307345326832
aaag1279
aF7.025109184640879e-05
aI00
asS'saffron'
p1285
(lp1286
(lp1287
(lp1288
F41.72910741947855
aF25.860835401100257
aa(lp1289
F79.0961002694092
aF16.49936165476973
aa(lp1290
F88.72661708361724
aF10.81481430964384
aaag1285
aF5.712004664147257e-05
aI01
asS'avocado'
p1291
(lp1292
(lp1293
(lp1294
F84.1925177171932
aF21.075078505585697
aa(lp1295
F66.14158193252636
aF20.19590316289694
aa(lp1296
F71.78942445802949
aF15.274556974383744
aaag1291
aF0.0003853961767648781
aI01
asS'off white'
p1297
(lp1298
(lp1299
(lp1300
F43.08670093987116
aF70.31640403624549
aa(lp1301
F17.5076767770366
aF12.688368216730137
aa(lp1302
F93.72224252019724
aF6.448502848862639
aaag1297
aF0.0009513442250976294
aI01
asS'darkish red'
p1303
(lp1304
(lp1305
(lp1306
F-3.634154327844447
aF8.293670637914095
aa(lp1307
F84.41070966012894
aF10.350876635266129
aa(lp1308
F70.23387668320119
aF10.468761772383107
aaag1303
aF5.4493837600485324e-05
aI01
asS'light sky blue'
p1309
(lp1310
(lp1311
(lp1312
F189.56234789969926
aF22.552505186560307
aa(lp1313
F40.825255107538524
aF20.475307940538755
aa(lp1314
F92.47081491556153
aF5.996965713135529
aaag1309
aF0.00022716708204539664
aI00
asS'lighter green'
p1315
(lp1316
(lp1317
(lp1318
F117.23472377343549
aF23.24720081747165
aa(lp1319
F68.03587897081371
aF19.175489923334116
aa(lp1320
F85.46389287422193
aF10.878130347597335
aaag1315
aF0.00021534914136095404
aI00
asS'orange'
p1321
(lp1322
(lp1323
(lp1324
F25.893457478217012
aF13.10042809199075
aa(lp1325
F84.03010353673184
aF11.54748895215219
aa(lp1326
F90.03549591879748
aF7.8910364780071305
aaag1321
aF0.017096620856826963
aI01
asS'burnt sienna'
p1327
(lp1328
(lp1329
(lp1330
F20.70187516128429
aF12.843607086008298
aa(lp1331
F80.39749207604295
aF14.069734491153227
aa(lp1332
F68.00151911553662
aF14.824767228934483
aaag1327
aF0.0009152338507840547
aI01
asS'forest'
p1333
(lp1334
(lp1335
(lp1336
F123.07134531210384
aF28.53926655241828
aa(lp1337
F71.38345429758542
aF19.60116597632459
aa(lp1338
F46.974789915969474
aF15.554727527241488
aaag1333
aF0.0002297932910863839
aI00
asS'cornflower'
p1339
(lp1340
(lp1341
(lp1342
F222.77243079739532
aF34.395227139998475
aa(lp1343
F57.914426928067634
aF20.040530871627826
aa(lp1344
F82.5658413499462
aF13.237026817692197
aaag1339
aF0.0004897879861441211
aI00
asS'coffee'
p1345
(lp1346
(lp1347
(lp1348
F27.835318413109743
aF17.83832683329566
aa(lp1349
F59.71335279165547
aF20.387753859569905
aa(lp1350
F55.943137254902965
aF17.435357514461252
aaag1345
aF0.00013131045204936223
aI01
asS'neon green'
p1351
(lp1352
(lp1353
(lp1354
F110.70400190300515
aF18.38712036700268
aa(lp1355
F86.2522798210545
aF11.061917281098161
aa(lp1356
F92.99276725615753
aF6.108768336536288
aaag1351
aF0.003079230100557544
aI00
asS'dark magenta'
p1357
(lp1358
(lp1359
(lp1360
F-35.55531157815813
aF17.008411502964055
aa(lp1361
F80.08411103389471
aF14.5372489453722
aa(lp1362
F64.71700482571934
aF14.740337779832508
aaag1357
aF0.0007176116204497645
aI01
asS'violet pink'
p1363
(lp1364
(lp1365
(lp1366
F308.32593702801563
aF14.154346420116022
aa(lp1367
F65.88910707931892
aF21.412108655950885
aa(lp1368
F86.41759406465809
aF10.242967137396684
aaag1363
aF4.8584867258264024e-05
aI00
asS'slate'
p1369
(lp1370
(lp1371
(lp1372
F180.8672389465737
aF67.14199748113909
aa(lp1373
F30.902976192641734
aF17.30654097215733
aa(lp1374
F56.66468206715899
aF17.61171508815712
aaag1369
aF0.0012973472662476987
aI00
asS'emerald green'
p1375
(lp1376
(lp1377
(lp1378
F132.1843709668557
aF18.595197110955556
aa(lp1379
F81.98655850027366
aF14.06916251417215
aa(lp1380
F64.36304831210971
aF18.219673122455156
aaag1375
aF0.0003184278462197034
aI00
asS'greenish brown'
p1381
(lp1382
(lp1383
(lp1384
F57.77668130278584
aF14.519242064161466
aa(lp1385
F69.35342348228124
aF19.476078191521662
aa(lp1386
F50.874155682340536
aF15.527957997363716
aaag1381
aF0.00039261825162759307
aI00
asS'faded red'
p1387
(lp1388
(lp1389
(lp1390
F-2.2417331259484645
aF9.679787141490097
aa(lp1391
F63.48626539100955
aF16.162240609539136
aa(lp1392
F78.603921568629
aF11.579499045924303
aaag1387
aF0.00013131045204936223
aI01
asS'vomit'
p1393
(lp1394
(lp1395
(lp1396
F62.28761440851574
aF24.292813401444857
aa(lp1397
F72.99447818303014
aF18.70751018004872
aa(lp1398
F70.71366198300959
aF15.002807653294564
aaag1393
aF0.00048650522484288707
aI01
asS'lightish blue'
p1399
(lp1400
(lp1401
(lp1402
F211.3606188598895
aF18.534850442156646
aa(lp1403
F69.9052090602277
aF17.10136592066639
aa(lp1404
F84.57290182508892
aF10.549056890101069
aaag1399
aF0.0001897436032113284
aI00
asS'celery green'
p1405
(lp1406
(lp1407
(lp1408
F92.09576117840912
aF20.460142764796313
aa(lp1409
F57.25859818165717
aF20.82021606168512
aa(lp1410
F86.70588235294572
aF9.315839359114161
aaag1405
aF4.595865821727678e-05
aI00
asS'faded orange'
p1411
(lp1412
(lp1413
(lp1414
F27.397648674314915
aF9.257275829644575
aa(lp1415
F67.7648821694916
aF12.671224760924481
aa(lp1416
F89.66831592449998
aF6.881302233872808
aaag1411
aF7.025109184640879e-05
aI00
asS'pumpkin orange'
p1417
(lp1418
(lp1419
(lp1420
F28.162014377778537
aF8.030049096755018
aa(lp1421
F86.0276232033874
aF10.000306093521298
aa(lp1422
F88.24873949579599
aF8.192219980138143
aaag1417
aF0.00011489664554319195
aI00
asS'pinkish'
p1423
(lp1424
(lp1425
(lp1426
F-24.02730240302536
aF25.549205121103462
aa(lp1427
F55.01077190617648
aF21.114983058294136
aa(lp1428
F86.52898857384739
aF8.961515211891644
aaag1423
aF0.00045630382087153375
aI01
asS'twilight'
p1429
(lp1430
(lp1431
(lp1432
F-118.10097538512491
aF35.96910733498873
aa(lp1433
F61.06284162846112
aF21.712299455048168
aa(lp1434
F60.430941607415384
aF19.559090863244112
aaag1429
aF5.974625568245981e-05
aI01
asS'silver'
p1435
(lp1436
(lp1437
(lp1438
F157.5012464402984
aF84.8499625330704
aa(lp1439
F13.728480133125512
aF10.715956726600844
aa(lp1440
F78.16526610644695
aF12.425763677876906
aaag1435
aF0.00012868424300837498
aI00
asS'dusty teal'
p1441
(lp1442
(lp1443
(lp1444
F168.90627829704633
aF22.57671372420506
aa(lp1445
F53.64026668885526
aF17.312423749639112
aa(lp1446
F61.10423116614737
aF12.70840324059073
aaag1441
aF4.989797177875764e-05
aI00
asS'vomit yellow'
p1447
(lp1448
(lp1449
(lp1450
F61.14101243366078
aF10.662651443660469
aa(lp1451
F77.222786244726
aF15.746867572107059
aa(lp1452
F81.07843137254902
aF11.666223041870623
aaag1447
aF6.828143506566835e-05
aI00
asS'dark navy blue'
p1453
(lp1454
(lp1455
(lp1456
F233.29901434926003
aF24.224374076139316
aa(lp1457
F72.03894593911873
aF19.695435406859435
aa(lp1458
F29.0767973856227
aF12.585643109092848
aaag1453
aF9.45435254755408e-05
aI00
asS'goldenrod'
p1459
(lp1460
(lp1461
(lp1462
F48.54344314497375
aF8.755788931215085
aa(lp1463
F81.8598133064066
aF13.153146724831116
aa(lp1464
F86.70088044701063
aF9.71777413990281
aaag1459
aF0.0013846687168605246
aI01
asS'ruby'
p1465
(lp1466
(lp1467
(lp1468
F-14.075369145228716
aF11.135505702369626
aa(lp1469
F86.6459852003264
aF11.43186586738308
aa(lp1470
F70.95315904139721
aF12.963657503229582
aaag1465
aF4.72717627377704e-05
aI01
asS'dirty green'
p1471
(lp1472
(lp1473
(lp1474
F90.1332418121814
aF28.35606445092785
aa(lp1475
F64.13196987004382
aF20.468364586494587
aa(lp1476
F60.636306135353564
aF16.031198915983854
aaag1471
aF0.00020353120067651145
aI00
asS'jade green'
p1477
(lp1478
(lp1479
(lp1480
F129.68524461050023
aF29.467772521970442
aa(lp1481
F65.81962385889452
aF20.63158096739237
aa(lp1482
F70.14260249554457
aF15.064873382992662
aaag1477
aF0.00014444149725429846
aI00
asS'sunshine yellow'
p1483
(lp1484
(lp1485
(lp1486
F56.48842786293689
aF7.248220900567997
aa(lp1487
F75.34276179702614
aF15.66902902330286
aa(lp1488
F95.28678761223549
aF4.000661555821741
aaag1483
aF7.025109184640879e-05
aI01
asS'off green'
p1489
(lp1490
(lp1491
(lp1492
F111.49827541086752
aF32.829091076362324
aa(lp1493
F64.81966345737946
aF22.27969624294278
aa(lp1494
F72.79314374756552
aF14.788745757181488
aaag1489
aF9.913939129726849e-05
aI01
asS'pale olive green'
p1495
(lp1496
(lp1497
(lp1498
F85.11488212642696
aF18.80763203612097
aa(lp1499
F43.17160956464831
aF17.051103643559134
aa(lp1500
F78.06283959367106
aF11.162034002847252
aaag1495
aF5.4493837600485324e-05
aI00
asS'dark violet'
p1501
(lp1502
(lp1503
(lp1504
F-74.78575484978015
aF27.732110161103908
aa(lp1505
F69.46642840725079
aF20.909720629120898
aa(lp1506
F49.21653878942957
aF18.835540692404958
aaag1501
aF0.0003020140397135331
aI01
asS'reddy brown'
p1507
(lp1508
(lp1509
(lp1510
F5.181468673789992
aF12.296997708738187
aa(lp1511
F76.3168839506609
aF16.484371302951786
aa(lp1512
F58.5891368041379
aF17.22644607625656
aaag1507
aF5.712004664147257e-05
aI01
asS'ecru'
p1513
(lp1514
(lp1515
(lp1516
F52.75611737540166
aF26.782584229428227
aa(lp1517
F33.09632632328635
aF17.31181813421825
aa(lp1518
F85.67660247955426
aF11.59999634823496
aaag1513
aF0.0001464111540350389
aI01
asS'soft pink'
p1519
(lp1520
(lp1521
(lp1522
F-19.523031098039585
aF24.06941637512485
aa(lp1523
F40.14695240287528
aF16.31921544468833
aa(lp1524
F91.26082991336104
aF6.6940400375829965
aaag1519
aF0.00011292698876245151
aI01
asS'scarlet'
p1525
(lp1526
(lp1527
(lp1528
F-5.106310241652282
aF10.903389157847958
aa(lp1529
F87.74137709388182
aF9.654155788591765
aa(lp1530
F76.1392405063296
aF15.792677130760511
aaag1525
aF0.00041494102847598464
aI01
asS'milk chocolate'
p1531
(lp1532
(lp1533
(lp1534
F25.036495817917263
aF15.699939481219314
aa(lp1535
F66.03596204876764
aF19.155087984708963
aa(lp1536
F54.1204683312151
aF12.39122620100348
aaag1531
aF9.126076417430675e-05
aI01
asS'pale yellow-green'
p1537
(lp1538
(lp1539
(lp1540
F81.03727141436221
aF15.622837184598959
aa(lp1541
F48.6298980806411
aF15.722036097773534
aa(lp1542
F91.27585280687396
aF7.584447447381581
aaag1537
aF4.792831499801721e-05
aI00
asS'rose red'
p1543
(lp1544
(lp1545
(lp1546
F-11.980406425934836
aF9.648311386225508
aa(lp1547
F85.4557577240626
aF11.96853289869365
aa(lp1548
F76.80886094896027
aF13.114930609136952
aaag1543
aF8.600834609233226e-05
aI01
asS'pure blue'
p1549
(lp1550
(lp1551
(lp1552
F-125.53738983142615
aF13.975663280544486
aa(lp1553
F90.75483508647054
aF9.91611273292392
aa(lp1554
F85.31422825540511
aF11.42455255888695
aaag1549
aF5.121107629925127e-05
aI01
asS'dark royal blue'
p1555
(lp1556
(lp1557
(lp1558
F-121.22003491273802
aF17.53060964014077
aa(lp1559
F84.95241080949748
aF12.44762569556313
aa(lp1560
F52.73039215686375
aF17.267925538489237
aaag1555
aF5.252418081974489e-05
aI01
asS'greyish pink'
p1561
(lp1562
(lp1563
(lp1564
F-10.932592158050742
aF25.955749968647478
aa(lp1565
F31.969850302297477
aF13.825321929560374
aa(lp1566
F78.5705732674733
aF9.956188856502095
aaag1561
aF0.00017201669218466453
aI01
asS'magneta'
p1567
(lp1568
(lp1569
(lp1570
F314.83640369755733
aF25.449983604478806
aa(lp1571
F80.82371897920387
aF14.194813065799144
aa(lp1572
F80.12443438914426
aF15.148225576860733
aaag1567
aF6.828143506566835e-05
aI00
asS'lilac'
p1573
(lp1574
(lp1575
(lp1576
F-78.60844752510343
aF28.805372029924275
aa(lp1577
F41.383132917621225
aF18.808441061978762
aa(lp1578
F84.55115316380895
aF11.320028272875089
aaag1573
aF0.005551149360386788
aI01
asS"robin's egg blue"
p1579
(lp1580
(lp1581
(lp1582
F185.78337850506884
aF19.37538052447933
aa(lp1583
F59.241504505961025
aF22.719155983772573
aa(lp1584
F88.17699579831954
aF9.346791869993439
aaag1579
aF0.001470677062952857
aI00
asS'mahogany'
p1585
(lp1586
(lp1587
(lp1588
F7.06036057123791
aF17.628069886374572
aa(lp1589
F78.81735581507868
aF16.186731355121694
aa(lp1590
F49.68432186152643
aF16.30693995665459
aaag1585
aF0.000316458189438963
aI01
asS'pea soup green'
p1591
(lp1592
(lp1593
(lp1594
F75.99999546612982
aF17.468780650576836
aa(lp1595
F68.23649699505327
aF20.553360269562134
aa(lp1596
F70.33213285314051
aF14.791129244667994
aaag1591
aF0.00019302636451256247
aI00
asS'steel blue'
p1597
(lp1598
(lp1599
(lp1600
F204.11664229093952
aF23.745057736768555
aa(lp1601
F45.38405480423252
aF20.17679479529035
aa(lp1602
F62.8613031369723
aF15.290768694638418
aaag1597
aF0.000910637984962327
aI00
asS'light olive green'
p1603
(lp1604
(lp1605
(lp1606
F81.48236045109641
aF17.53135608526405
aa(lp1607
F57.78923616198868
aF20.041765188242646
aa(lp1608
F74.0716485401332
aF12.084785246716923
aaag1603
aF0.000330245786904146
aI00
asS'grey blue'
p1609
(lp1610
(lp1611
(lp1612
F201.64447581750204
aF30.569986281335503
aa(lp1613
F38.1633869359312
aF18.26365957801381
aa(lp1614
F65.28990426254045
aF15.944767774159638
aaag1609
aF0.0032998316600004727
aI00
asS'deep green'
p1615
(lp1616
(lp1617
(lp1618
F125.37828452708004
aF26.764918378575306
aa(lp1619
F79.14107381548617
aF17.479708065399574
aa(lp1620
F44.10070200920151
aF16.966723766861485
aaag1615
aF0.0002659036653999585
aI00
asS'dusky rose'
p1621
(lp1622
(lp1623
(lp1624
F-8.02790937632888
aF18.928277970258
aa(lp1625
F44.96191837132163
aF13.878214516830498
aa(lp1626
F74.814164471759
aF11.370342977888019
aaag1621
aF0.00017595600574614537
aI01
asS'navy'
p1627
(lp1628
(lp1629
(lp1630
F229.0242551698647
aF22.128715560477385
aa(lp1631
F74.58355223379341
aF18.602358483124775
aa(lp1632
F39.92343838413709
aF14.54328143385814
aaag1627
aF0.0026163607570835424
aI00
asS'pea'
p1633
(lp1634
(lp1635
(lp1636
F81.25198961164249
aF21.387785655639757
aa(lp1637
F68.10497874032636
aF19.806255463910013
aa(lp1638
F75.86601307189727
aF14.120890074746027
aaag1633
aF9.45435254755408e-05
aI00
asS'sandy'
p1639
(lp1640
(lp1641
(lp1642
F47.21956312004044
aF11.065782644156522
aa(lp1643
F51.00725232272992
aF17.185668908689937
aa(lp1644
F84.14165666266223
aF9.654900453526853
aaag1639
aF6.434212150418749e-05
aI01
asS'velvet'
p1645
(lp1646
(lp1647
(lp1648
F-43.61638714421401
aF36.74835144373493
aa(lp1649
F69.66292318616068
aF21.74046648789889
aa(lp1650
F59.74323062558094
aF19.30005811091793
aaag1645
aF5.5150389860732136e-05
aI01
asS'lipstick'
p1651
(lp1652
(lp1653
(lp1654
F-14.667508477811877
aF13.29528018756634
aa(lp1655
F77.91920353446818
aF13.436072280400142
aa(lp1656
F79.46969696969543
aF12.745514839297947
aaag1651
aF5.777659890171938e-05
aI01
asS'greyish teal'
p1657
(lp1658
(lp1659
(lp1660
F166.7205517974872
aF25.98033794310957
aa(lp1661
F39.798388067632466
aF15.713592759216995
aa(lp1662
F59.32263814616753
aF12.814488404264752
aaag1657
aF5.0554524039004455e-05
aI00
asS'dark red'
p1663
(lp1664
(lp1665
(lp1666
F-3.4637066054314336
aF10.983413358281675
aa(lp1667
F85.03488197728812
aF11.725926125417057
aa(lp1668
F56.568969051034834
aF14.098047193299658
aaag1663
aF0.002072735485599183
aI01
asS'pastel green'
p1669
(lp1670
(lp1671
(lp1672
F121.30265624995424
aF24.598458821162193
aa(lp1673
F51.269520610822795
aF19.40380908172234
aa(lp1674
F88.68855918595911
aF9.452473238363511
aaag1669
aF0.0014030521801474353
aI00
asS'brick red'
p1675
(lp1676
(lp1677
(lp1678
F2.8970158604050336
aF9.984374262626512
aa(lp1679
F81.30343282822597
aF13.549755161992504
aa(lp1680
F63.79417151475959
aF13.89462136696514
aaag1675
aF0.001911880181838714
aI01
asS'carolina blue'
p1681
(lp1682
(lp1683
(lp1684
F204.4329121254042
aF16.915713589071267
aa(lp1685
F51.911164733934655
aF21.34247127247361
aa(lp1686
F88.37450980391851
aF8.470578930641445
aaag1681
aF0.00013131045204936223
aI00
asS'marine blue'
p1687
(lp1688
(lp1689
(lp1690
F207.88071055993024
aF22.156109925174242
aa(lp1691
F75.96975737074526
aF15.676688688757826
aa(lp1692
F63.251942286346676
aF18.57169582676105
aaag1687
aF0.00013918907917232396
aI00
asS'dirty yellow'
p1693
(lp1694
(lp1695
(lp1696
F57.76522721411161
aF9.323695338332579
aa(lp1697
F75.51089432271343
aF17.22294286353564
aa(lp1698
F81.18719013801304
aF11.002346434370438
aaag1693
aF0.00028822644224835007
aI00
asS'dark plum'
p1699
(lp1700
(lp1701
(lp1702
F-43.50681995280859
aF24.694547276928667
aa(lp1703
F66.43525325827521
aF20.92997891169411
aa(lp1704
F33.507625272328205
aF12.46235412730259
aaag1699
aF7.68166144488769e-05
aI01
asS'caucasian'
p1705
(lp1706
(lp1707
(lp1708
F30.6119071881761
aF13.619515510863831
aa(lp1709
F38.1098878205245
aF13.149907577868243
aa(lp1710
F92.44781783680972
aF5.411288995650404
aaag1705
aF6.105936020295343e-05
aI01
asS'red'
p1711
(lp1712
(lp1713
(lp1714
F-2.2886302164612267
aF14.43636035492658
aa(lp1715
F86.34932213624096
aF11.747627716459991
aa(lp1716
F80.47015008422143
aF13.63446426504083
aaag1711
aF0.022094953214085934
aI01
asS'bright pink'
p1717
(lp1718
(lp1719
(lp1720
F-38.389212941443525
aF15.102720641080866
aa(lp1721
F81.07515606759131
aF13.915349958471097
aa(lp1722
F92.79943928145158
aF6.322593377267701
aaag1717
aF0.001487747421719274
aI01
asS'brownish red'
p1723
(lp1724
(lp1725
(lp1726
F5.362910839134034
aF10.658750450185773
aa(lp1727
F73.82535482358395
aF16.862629791761986
aa(lp1728
F59.93818716116998
aF14.25734902891819
aaag1723
aF0.00025408572471551593
aI01
asS'baby green'
p1729
(lp1730
(lp1731
(lp1732
F123.80427512358074
aF21.91245562775226
aa(lp1733
F49.3189864891026
aF16.91081858033014
aa(lp1734
F91.22994652406882
aF7.555697763676375
aaag1729
aF5.0554524039004455e-05
aI00
asS'light magenta'
p1735
(lp1736
(lp1737
(lp1738
F-44.93421512905959
aF22.87208070790814
aa(lp1739
F61.59515764002116
aF17.103539767070323
aa(lp1740
F85.86020182131284
aF10.33375862943965
aaag1735
aF0.00031383198039797573
aI01
asS'fuchsia'
p1741
(lp1742
(lp1743
(lp1744
F-45.1106082702536
aF19.610861801423713
aa(lp1745
F79.31529231585617
aF15.882455415724369
aa(lp1746
F83.22550101718447
aF12.08955587954141
aaag1741
aF0.009517381564537774
aI01
asS'royal blue'
p1747
(lp1748
(lp1749
(lp1750
F238.05614508801128
aF15.489709244879462
aa(lp1751
F85.65599947352885
aF11.823417207593288
aa(lp1752
F70.92602676654371
aF17.551306308992142
aaag1747
aF0.005815739921266253
aI00
asS'putty'
p1753
(lp1754
(lp1755
(lp1756
F42.3565264694955
aF39.50825379718526
aa(lp1757
F32.25503935966409
aF14.334849043922402
aa(lp1758
F72.97924995240874
aF13.940071793888443
aaag1753
aF6.762488280542154e-05
aI01
asS'sky blue'
p1759
(lp1760
(lp1761
(lp1762
F198.89447050804108
aF18.544687645950123
aa(lp1763
F60.72488198330787
aF22.077140148559632
aa(lp1764
F89.81744899980113
aF8.08815706160243
aaag1759
aF0.012999734752886861
aI00
asS'deep lilac'
p1765
(lp1766
(lp1767
(lp1768
F-80.52220036198344
aF25.67221787228456
aa(lp1769
F53.54378691424649
aF22.683099645135652
aa(lp1770
F71.3780723557014
aF14.648270536818561
aaag1765
aF4.661521047752359e-05
aI01
asS'marine'
p1771
(lp1772
(lp1773
(lp1774
F192.39084431492927
aF31.707379998307495
aa(lp1775
F74.67977083751859
aF16.943037229324666
aa(lp1776
F66.912904696762
aF20.40682939160953
aaag1771
aF8.469524157183864e-05
aI00
asS'dark periwinkle'
p1777
(lp1778
(lp1779
(lp1780
F245.38073360836725
aF23.471397196135506
aa(lp1781
F61.64916668272975
aF18.996580583760103
aa(lp1782
F77.031497195456
aF15.34138644921448
aaag1777
aF0.00026852987444094575
aI00
asS'cornflower blue'
p1783
(lp1784
(lp1785
(lp1786
F223.0868069833561
aF18.724140359873104
aa(lp1787
F60.98975613238569
aF18.815380154497618
aa(lp1788
F82.12162735310491
aF12.638667888045148
aaag1783
aF0.000789175816816667
aI00
asS'gunmetal'
p1789
(lp1790
(lp1791
(lp1792
F177.82141816946924
aF72.23103321243451
aa(lp1793
F28.933881468666073
aF16.50084938635929
aa(lp1794
F48.69921824938627
aF15.866479817052083
aaag1789
aF0.0001004524958177621
aI00
asS'puke green'
p1795
(lp1796
(lp1797
(lp1798
F76.00408688358672
aF19.39265242535299
aa(lp1799
F74.0455962624799
aF19.03598792140407
aa(lp1800
F70.91908579250533
aF15.213064995132845
aaag1795
aF0.0017680952368446623
aI01
asS'yellow-orange'
p1801
(lp1802
(lp1803
(lp1804
F41.079504003442345
aF8.054999654758497
aa(lp1805
F82.50780043703973
aF11.89244759100323
aa(lp1806
F92.37281280225267
aF6.442680459600908
aaag1801
aF0.0007320557701751944
aI01
asS'camo green'
p1807
(lp1808
(lp1809
(lp1810
F83.07795691270988
aF23.89705134289505
aa(lp1811
F59.68475819761066
aF21.270076711324595
aa(lp1812
F51.67223942208334
aF14.250692789898581
aaag1807
aF0.00031186232361723527
aI00
asS'pale cyan'
p1813
(lp1814
(lp1815
(lp1816
F167.31193427080044
aF19.271901988976293
aa(lp1817
F39.4515937815652
aF18.452477160549854
aa(lp1818
F89.99573742540976
aF9.14119731077346
aaag1813
aF6.040280794270662e-05
aI00
asS'midnight purple'
p1819
(lp1820
(lp1821
(lp1822
F280.20484194802134
aF25.756342620519472
aa(lp1823
F65.42376097341639
aF22.74576264660782
aa(lp1824
F31.954022988505507
aF15.982703098554746
aaag1819
aF7.616006218863009e-05
aI00
asS'dark gold'
p1825
(lp1826
(lp1827
(lp1828
F48.9281076599324
aF8.26068170955192
aa(lp1829
F82.14404676574127
aF13.048169100323388
aa(lp1830
F67.83245593957386
aF13.702141675865208
aaag1825
aF0.00016873393088343046
aI00
asS'grey pink'
p1831
(lp1832
(lp1833
(lp1834
F-16.464647650014413
aF29.518074803229005
aa(lp1835
F30.967754685030908
aF14.611799376187424
aa(lp1836
F77.85941253971937
aF10.429861286322977
aaag1831
aF0.00016610772184244321
aI01
asS'muted purple'
p1837
(lp1838
(lp1839
(lp1840
F-66.14583873456816
aF31.656520224533928
aa(lp1841
F42.789247436248495
aF16.554435772551056
aa(lp1842
F59.809863339279545
aF11.741161313352407
aaag1837
aF8.666489835257906e-05
aI01
asS'blush'
p1843
(lp1844
(lp1845
(lp1846
F-5.629546744317665
aF23.90794886527678
aa(lp1847
F45.59448591509169
aF19.2183518116651
aa(lp1848
F85.6934481109537
aF10.762638324332803
aaag1843
aF0.00021534914136095404
aI01
asS'darkish blue'
p1849
(lp1850
(lp1851
(lp1852
F224.52269391494292
aF19.853592103300493
aa(lp1853
F76.05657775915535
aF15.392716101472665
aa(lp1854
F59.55484896660987
aF15.284647010568113
aaag1849
aF0.00014575460177479208
aI00
asS'slate grey'
p1855
(lp1856
(lp1857
(lp1858
F179.55317015403944
aF66.9855558628672
aa(lp1859
F24.795672432054307
aF15.732189677500534
aa(lp1860
F54.230467571644986
aF17.647790844805495
aaag1855
aF0.0004267589691604272
aI00
asS'dusty orange'
p1861
(lp1862
(lp1863
(lp1864
F26.676639363242906
aF10.1545730050233
aa(lp1865
F75.7983103061202
aF13.951863248626282
aa(lp1866
F84.91186373539395
aF8.046935013362067
aaag1861
aF6.49986737644343e-05
aI01
asS'copper'
p1867
(lp1868
(lp1869
(lp1870
F28.242019894785898
aF17.97523141063169
aa(lp1871
F75.53425325068626
aF16.95285199669068
aa(lp1872
F70.67401960784314
aF13.643570088424756
aaag1867
aF0.00010504836163948979
aI01
asS'puce'
p1873
(lp1874
(lp1875
(lp1876
F16.977210612390767
aF59.99014616927888
aa(lp1877
F59.56327395277166
aF24.308154689573637
aa(lp1878
F72.55770757500859
aF15.952180692137619
aaag1873
aF0.0017188538173261514
aI01
asS'dark pink'
p1879
(lp1880
(lp1881
(lp1882
F-24.663936664090603
aF17.85097356069935
aa(lp1883
F69.18184443315926
aF19.139665485304064
aa(lp1884
F78.98395129328394
aF11.481603515588155
aaag1879
aF0.003949818397644815
aI01
asS'dark coral'
p1885
(lp1886
(lp1887
(lp1888
F3.734039659294918
aF27.885477836662638
aa(lp1889
F68.72694330109054
aF13.399091702830116
aa(lp1890
F82.90196078431885
aF10.30448974911836
aaag1885
aF5.580694212097895e-05
aI01
asS'pale teal'
p1891
(lp1892
(lp1893
(lp1894
F155.9480752372385
aF21.97002183252896
aa(lp1895
F42.961519597263276
aF18.781869736364165
aa(lp1896
F81.97552705292671
aF10.630240420935193
aaag1891
aF0.00017464290122565175
aI00
asS'pinkish brown'
p1897
(lp1898
(lp1899
(lp1900
F13.081575102098778
aF13.070149990047318
aa(lp1901
F44.79878455827749
aF14.758049309863772
aa(lp1902
F71.77941176470561
aF11.384956678092417
aaag1897
aF0.00010504836163948979
aI01
asS'red-brown'
p1903
(lp1904
(lp1905
(lp1906
F8.28480985639684
aF11.720122341725016
aa(lp1907
F74.03327259470935
aF17.47253648369218
aa(lp1908
F58.01645196337105
aF14.500419328512306
aaag1903
aF0.0007464999199006243
aI01
asS'fern'
p1909
(lp1910
(lp1911
(lp1912
F103.74568143569758
aF25.20472419265133
aa(lp1913
F60.425619304044
aF19.693825512913264
aa(lp1914
F65.93464052287199
aF16.718131485681308
aaag1909
aF4.924141951851084e-05
aI00
asS'reddish pink'
p1915
(lp1916
(lp1917
(lp1918
F-13.737028493479595
aF12.035046615216574
aa(lp1919
F76.10458587464669
aF15.79197741326655
aa(lp1920
F86.06875644994598
aF9.47526562889404
aaag1915
aF0.00039918377423006114
aI01
asS'aqua green'
p1921
(lp1922
(lp1923
(lp1924
F152.30841549341574
aF15.468718059061707
aa(lp1925
F71.87351753465022
aF19.264797905148484
aa(lp1926
F81.89949025862249
aF14.323077897212768
aaag1921
aF0.00041165826717475055
aI00
asS'pale sky blue'
p1927
(lp1928
(lp1929
(lp1930
F192.21987918100663
aF29.53848595637294
aa(lp1931
F33.48057223597527
aF17.9098161109588
aa(lp1932
F92.06971677559629
aF7.158048137194803
aaag1927
aF7.09076441066556e-05
aI00
asS'pinkish grey'
p1933
(lp1934
(lp1935
(lp1936
F-11.813049297379155
aF35.85479753502567
aa(lp1937
F22.59429752643254
aF11.582985747908616
aa(lp1938
F74.50980392156616
aF10.591586531831195
aaag1933
aF8.535179383208545e-05
aI01
asS'faded green'
p1939
(lp1940
(lp1941
(lp1942
F113.40653559796966
aF27.529388293215458
aa(lp1943
F46.472346006097005
aF18.38165977926498
aa(lp1944
F74.63905741668974
aF14.524845392338731
aaag1939
aF0.0002928223080700778
aI00
asS'lavender blue'
p1945
(lp1946
(lp1947
(lp1948
F243.87105734772507
aF17.20994063650133
aa(lp1949
F52.23522097983652
aF18.540484316396096
aa(lp1950
F85.26491447643403
aF10.910062833336578
aaag1945
aF6.171591246320024e-05
aI00
asS'terracotta'
p1951
(lp1952
(lp1953
(lp1954
F16.101023140224086
aF10.405852815718747
aa(lp1955
F70.46316315705437
aF15.927422728777046
aa(lp1956
F75.63725490196191
aF12.024530110480596
aaag1951
aF0.000698571604902607
aI01
asS'dusk blue'
p1957
(lp1958
(lp1959
(lp1960
F221.27166686642508
aF25.931188782295724
aa(lp1961
F68.2098241220766
aF19.61537993999828
aa(lp1962
F61.99643493761428
aF18.17226889640997
aaag1957
aF5.0554524039004455e-05
aI00
asS'dark blue'
p1963
(lp1964
(lp1965
(lp1966
F231.4485493216415
aF20.45167119943959
aa(lp1967
F79.43147920238873
aF16.491553245580437
aa(lp1968
F49.55265835445874
aF16.88043479290112
aaag1963
aF0.007464999199006243
aI00
asS'cool blue'
p1969
(lp1970
(lp1971
(lp1972
F209.9435026500034
aF21.740771555984686
aa(lp1973
F67.31081425530313
aF20.758211224595346
aa(lp1974
F76.50388457270282
aF15.591102138273717
aaag1969
aF6.959453958616198e-05
aI00
asS'snot green'
p1975
(lp1976
(lp1977
(lp1978
F82.3318817833847
aF21.412433138247536
aa(lp1979
F74.99725932086564
aF18.331883578561442
aa(lp1980
F77.28963171984681
aF13.655664419511993
aaag1975
aF0.0001779256625268858
aI01
asS'drab green'
p1981
(lp1982
(lp1983
(lp1984
F95.47816152037822
aF31.27952791037806
aa(lp1985
F53.06325353247298
aF21.690822460871253
aa(lp1986
F59.180265654649645
aF15.800241761616576
aaag1981
aF0.00020353120067651145
aI00
asS'white'
p1987
(lp1988
(lp1989
(lp1990
F23.83336399698454
aF96.32754784863873
aa(lp1991
F14.32394609581286
aF18.552964273145577
aa(lp1992
F94.03035186677673
aF10.255078137172806
aaag1987
aF0.0007668530399682754
aI01
asS'light peach'
p1993
(lp1994
(lp1995
(lp1996
F31.74578080587814
aF17.153506884462157
aa(lp1997
F34.26954403723962
aF14.650654787453885
aa(lp1998
F95.25054466231626
aF4.203020385606416
aaag1993
aF8.86345551333195e-05
aI01
asS'banana'
p1999
(lp2000
(lp2001
(lp2002
F53.74193993312472
aF27.35522426291146
aa(lp2003
F67.20599420014898
aF17.87601185645441
aa(lp2004
F92.56078431372201
aF7.516626195174022
aaag1999
aF6.565522602468112e-05
aI01
asS'muted pink'
p2005
(lp2006
(lp2007
(lp2008
F-21.266775730045477
aF20.06214170322766
aa(lp2009
F45.02031626707973
aF15.910376146070766
aa(lp2010
F82.45363010068381
aF8.932567935099616
aaag2005
aF4.8584867258264024e-05
aI01
asS'kiwi'
p2011
(lp2012
(lp2013
(lp2014
F94.98055184185719
aF21.661963234890283
aa(lp2015
F70.38523225294374
aF19.845040381535537
aa(lp2016
F84.42265795207537
aF10.662399927576143
aaag2011
aF8.27255847910982e-05
aI00
asS'brown yellow'
p2017
(lp2018
(lp2019
(lp2020
F50.4948395712408
aF9.741874766169722
aa(lp2021
F77.48426867580443
aF16.657555751701736
aa(lp2022
F69.69934640523
aF14.933780956655372
aaag2017
aF5.9089703422213004e-05
aI00
asS'light mauve'
p2023
(lp2024
(lp2025
(lp2026
F-38.35710059627763
aF37.655861474997025
aa(lp2027
F35.71804609454057
aF18.391062706659604
aa(lp2028
F79.30558269819532
aF12.219870356491272
aaag2023
aF0.00019762223033429016
aI01
asS'muted blue'
p2029
(lp2030
(lp2031
(lp2032
F208.2333416719861
aF22.065229035308086
aa(lp2033
F60.44630392981429
aF19.879755596880084
aa(lp2034
F64.9059623849551
aF12.694103240873249
aaag2029
aF9.651318225628124e-05
aI00
asS'light lavender'
p2035
(lp2036
(lp2037
(lp2038
F-76.7635939498431
aF32.65107524811906
aa(lp2039
F28.40389164132593
aF15.567190881715334
aa(lp2040
F88.60830106989594
aF8.844340838151368
aaag2035
aF0.000309236114576248
aI01
asS'pastel yellow'
p2041
(lp2042
(lp2043
(lp2044
F59.473820321586736
aF12.166474040011021
aa(lp2045
F54.830291794213636
aF13.502999102253126
aa(lp2046
F95.71879483501071
aF4.13204562733006
aaag2041
aF0.00013459321335059627
aI01
asS'brownish grey'
p2047
(lp2048
(lp2049
(lp2050
F34.735308559936314
aF24.563042687625344
aa(lp2051
F29.62915997708027
aF13.580312197742263
aa(lp2052
F55.35316829434554
aF16.25144194738487
aaag2047
aF0.0001700470354039241
aI01
asS'golden brown'
p2053
(lp2054
(lp2055
(lp2056
F42.39089213348304
aF8.018780741257387
aa(lp2057
F82.7233847749335
aF12.56052647662276
aa(lp2058
F69.58512160228969
aF12.656994344742126
aaag2053
aF0.000152976676637507
aI00
asS'heliotrope'
p2059
(lp2060
(lp2061
(lp2062
F-59.82098677723127
aF39.88750746425611
aa(lp2063
F62.60240555211978
aF21.3390681133691
aa(lp2064
F85.87434973989865
aF10.133757414399133
aaag2059
aF9.651318225628124e-05
aI01
asS'pinkish purple'
p2065
(lp2066
(lp2067
(lp2068
F-50.42720141144765
aF17.373548003510464
aa(lp2069
F66.48112210483953
aF20.9054647401194
aa(lp2070
F82.79639566670122
aF11.605445897552498
aaag2065
aF0.0011443705896101919
aI01
asS'light mint'
p2071
(lp2072
(lp2073
(lp2074
F127.7350502095569
aF25.235849469586487
aa(lp2075
F38.547384591225665
aF16.411378048383817
aa(lp2076
F92.03117144293336
aF7.471458084522003
aaag2071
aF5.121107629925127e-05
aI00
asS'light sage'
p2077
(lp2078
(lp2079
(lp2080
F101.02408597713422
aF28.84990143635988
aa(lp2081
F34.613429473999254
aF14.816793147688376
aa(lp2082
F82.49554367201655
aF10.264779825330208
aaag2077
aF7.944282348986415e-05
aI00
asS'deep orange'
p2083
(lp2084
(lp2085
(lp2086
F19.28226513107068
aF7.518910576375067
aa(lp2087
F89.121814327857
aF8.353747827215525
aa(lp2088
F84.7382920110207
aF9.262795945776196
aaag2083
aF7.944282348986415e-05
aI00
asS'greeny brown'
p2089
(lp2090
(lp2091
(lp2092
F56.918486454425825
aF14.619917695232138
aa(lp2093
F68.2944661553055
aF21.838081622957898
aa(lp2094
F50.166561248151595
aF15.391735753316413
aaag2089
aF6.105936020295343e-05
aI01
asS'royal'
p2095
(lp2096
(lp2097
(lp2098
F245.80535330367394
aF28.692310959564686
aa(lp2099
F81.48891026481849
aF14.094978329295161
aa(lp2100
F67.02898550725108
aF19.01510160938698
aaag2095
aF6.040280794270662e-05
aI00
asS'steel'
p2101
(lp2102
(lp2103
(lp2104
F185.7424844014217
aF62.58130883623302
aa(lp2105
F26.997094080904372
aF17.746464795696323
aa(lp2106
F61.660300483830916
aF15.880029017454833
aaag2101
aF0.00020221809615601782
aI00
asS'off blue'
p2107
(lp2108
(lp2109
(lp2110
F210.9434046986919
aF29.92928355617614
aa(lp2111
F57.20537607389731
aF21.461094631205214
aa(lp2112
F76.48118706942435
aF14.337766537773804
aaag2107
aF4.8584867258264024e-05
aI00
asS'electric blue'
p2113
(lp2114
(lp2115
(lp2116
F217.58115048303677
aF26.58778090128158
aa(lp2117
F86.14041583317551
aF11.580102174508443
aa(lp2118
F89.71646781820871
aF9.642619285601075
aaag2113
aF0.0006506432899045898
aI00
asS'ugly green'
p2119
(lp2120
(lp2121
(lp2122
F101.04559278676426
aF33.471455910767446
aa(lp2123
F69.28020606681494
aF21.21980981566607
aa(lp2124
F72.55617865807665
aF16.848437907264636
aaag2119
aF0.0003236802643016779
aI00
asS'medium blue'
p2125
(lp2126
(lp2127
(lp2128
F216.76240029895015
aF17.408049622525898
aa(lp2129
F75.83845497864056
aF16.462564919177254
aa(lp2130
F78.32491278720089
aF13.730249122460343
aaag2125
aF0.0008561441473618417
aI00
asS'forest green'
p2131
(lp2132
(lp2133
(lp2134
F119.9642218791701
aF27.838107039322367
aa(lp2135
F73.10754986763705
aF18.695846571677716
aa(lp2136
F44.31324771624049
aF14.722249629442796
aaag2131
aF0.00808347142815874
aI00
asS'celadon'
p2137
(lp2138
(lp2139
(lp2140
F119.32896364681952
aF33.51154430453148
aa(lp2141
F41.362013992119145
aF19.86789999368152
aa(lp2142
F84.74283954419577
aF11.361332562084023
aaag2137
aF0.00012540148170714092
aI00
asS'purple-pink'
p2143
(lp2144
(lp2145
(lp2146
F-50.14556652317213
aF17.727564452610206
aa(lp2147
F66.49340998708621
aF19.98738975238591
aa(lp2148
F82.55732019995311
aF12.055705860418596
aaag2143
aF0.0006979150526423602
aI01
asS'light green'
p2149
(lp2150
(lp2151
(lp2152
F113.80594151108802
aF24.41660274862304
aa(lp2153
F60.990931171146116
aF20.60124865275997
aa(lp2154
F87.8731517901926
aF9.156205526677478
aaag2149
aF0.016092752450909586
aI00
asS'pea green'
p2155
(lp2156
(lp2157
(lp2158
F84.25715694428527
aF21.754625112312954
aa(lp2159
F71.07524059734558
aF18.779710035306334
aa(lp2160
F73.61373267255539
aF14.164164554805957
aaag2155
aF0.0017923876704737944
aI01
asS'rusty red'
p2161
(lp2162
(lp2163
(lp2164
F5.650803438493709
aF8.35605600481624
aa(lp2165
F80.1033590367045
aF11.989141861747168
aa(lp2166
F67.92685613571462
aF13.142955086842477
aaag2161
aF5.843315116196619e-05
aI01
asS'true blue'
p2167
(lp2168
(lp2169
(lp2170
F230.0826774637197
aF16.4261276909737
aa(lp2171
F86.93921288849643
aF10.525866731648215
aa(lp2172
F79.22680412371082
aF13.728358707794055
aaag2167
aF0.0002547422769757627
aI00
asS'cherry red'
p2173
(lp2174
(lp2175
(lp2176
F-6.742179848660983
aF9.084646050468653
aa(lp2177
F87.78394054857382
aF9.249528422851833
aa(lp2178
F81.92214816961133
aF12.236275756956216
aaag2173
aF0.00013328010883010267
aI01
asS'pale gold'
p2179
(lp2180
(lp2181
(lp2182
F51.79490371320323
aF8.509711842079307
aa(lp2183
F56.37940995093922
aF13.862342267777294
aa(lp2184
F87.7000529941703
aF8.077210439770017
aaag2179
aF4.8584867258264024e-05
aI01
asS'fire engine red'
p2185
(lp2186
(lp2187
(lp2188
F0.23076983329711173
aF6.557925509898914
aa(lp2189
F91.71445710442634
aF7.340652201304231
aa(lp2190
F88.5875308207114
aF9.504710592894963
aaag2185
aF0.00010964422746121746
aI01
asS'bright teal'
p2191
(lp2192
(lp2193
(lp2194
F169.8968355199415
aF13.788725948721842
aa(lp2195
F80.36179235845974
aF14.883756746751493
aa(lp2196
F88.90073876576231
aF9.964306432247204
aaag2191
aF0.00023176294786712433
aI00
asS'barf'
p2197
(lp2198
(lp2199
(lp2200
F63.66295100316149
aF29.901282111425452
aa(lp2201
F70.12416628442863
aF22.302981542607085
aa(lp2202
F70.2334267040125
aF15.06065910552076
aaag2197
aF0.00011030077972146427
aI01
asS'dark aqua'
p2203
(lp2204
(lp2205
(lp2206
F176.2110520790437
aF17.03825146097246
aa(lp2207
F74.0415092092872
aF18.922690068613566
aa(lp2208
F57.62886972971299
aF17.559069734042644
aaag2203
aF0.0003538816682730312
aI00
asS'tea green'
p2209
(lp2210
(lp2211
(lp2212
F104.6212415853059
aF27.48664426578016
aa(lp2213
F42.67951222634928
aF18.232098200645094
aa(lp2214
F83.88842861087889
aF12.112103056484369
aaag2209
aF4.661521047752359e-05
aI01
asS'raw umber'
p2215
(lp2216
(lp2217
(lp2218
F32.876055144523505
aF18.8958169401741
aa(lp2219
F73.68778332435247
aF18.34630458993086
aa(lp2220
F59.03873744619731
aF17.72406308283233
aaag2215
aF5.383728534023851e-05
aI01
asS'baby puke green'
p2221
(lp2222
(lp2223
(lp2224
F74.55049577278479
aF20.438246384977358
aa(lp2225
F73.58984906004508
aF19.63565670897419
aa(lp2226
F74.64236398785351
aF15.827580012163441
aaag2221
aF4.661521047752359e-05
aI00
asS'mint'
p2227
(lp2228
(lp2229
(lp2230
F132.74907150320823
aF22.26339725708624
aa(lp2231
F52.20996571751067
aF21.95691592743008
aa(lp2232
F88.65597147950157
aF9.184602254001891
aaag2227
aF0.0015527460954837082
aI00
asS'biege'
p2233
(lp2234
(lp2235
(lp2236
F44.806002977089726
aF17.257284332396523
aa(lp2237
F40.26671548066593
aF16.012768423231996
aa(lp2238
F84.21768707483332
aF12.721371443621708
aaag2233
aF9.651318225628124e-05
aI00
asS'baby poop green'
p2239
(lp2240
(lp2241
(lp2242
F70.30950006313725
aF15.133433877779483
aa(lp2243
F75.57892323369838
aF17.23362356882494
aa(lp2244
F64.62431372548559
aF15.448734464020285
aaag2239
aF8.206903253085139e-05
aI00
asS'lawn green'
p2245
(lp2246
(lp2247
(lp2248
F105.2509260754159
aF19.87610217247989
aa(lp2249
F76.9754453911178
aF16.639847550589256
aa(lp2250
F70.89443996777123
aF15.086051601832816
aaag2245
aF4.792831499801721e-05
aI00
asS'pastel blue'
p2251
(lp2252
(lp2253
(lp2254
F206.21891339510393
aF28.328458687347332
aa(lp2255
F45.49429959148225
aF20.465126500877666
aa(lp2256
F86.89958407605333
aF10.742143833168667
aaag2251
aF0.00043332449176289534
aI00
asS'turtle green'
p2257
(lp2258
(lp2259
(lp2260
F109.24820193052862
aF27.831295919704306
aa(lp2261
F70.90481963854776
aF19.85638390608491
aa(lp2262
F68.01978449037118
aF16.78618069533321
aaag2257
aF7.287730088739604e-05
aI00
asS'green-grey'
p2263
(lp2264
(lp2265
(lp2266
F113.95834114322606
aF36.48950575415947
aa(lp2267
F32.299942090723086
aF16.01775808353857
aa(lp2268
F59.58382681931891
aF16.669261733992464
aaag2263
aF0.0007826102942141989
aI00
asS'snot'
p2269
(lp2270
(lp2271
(lp2272
F74.74772184882073
aF21.32432825636889
aa(lp2273
F72.78273147229615
aF18.556329404132107
aa(lp2274
F76.159918512863
aF13.752941033039562
aaag2269
aF0.00010110904807800891
aI00
asS'barney purple'
p2275
(lp2276
(lp2277
(lp2278
F296.1259666633746
aF20.045815369264997
aa(lp2279
F78.12436014361555
aF15.470902576944818
aa(lp2280
F71.79946770952321
aF15.71705691080349
aaag2275
aF0.0002370153659490988
aI00
asS'viridian'
p2281
(lp2282
(lp2283
(lp2284
F139.70989230632043
aF37.00985201654065
aa(lp2285
F72.92622417188569
aF22.905438237043246
aa(lp2286
F63.769507803119396
aF17.971813519708657
aaag2281
aF6.434212150418749e-05
aI00
asS"robin's egg"
p2287
(lp2288
(lp2289
(lp2290
F182.98699540427674
aF23.247831673860514
aa(lp2291
F53.83552073823844
aF22.161014888434526
aa(lp2292
F89.152117467994
aF8.278752242194455
aaag2287
aF0.00014378494499405164
aI00
asS'buff'
p2293
(lp2294
(lp2295
(lp2296
F41.00411135715086
aF18.544714138271026
aa(lp2297
F43.863644844999925
aF17.94131170951356
aa(lp2298
F85.75271430886778
aF10.356170397144108
aaag2293
aF7.944282348986415e-05
aI01
asS'dark seafoam green'
p2299
(lp2300
(lp2301
(lp2302
F146.5023885852662
aF18.629195735422474
aa(lp2303
F65.8652999492836
aF21.289812361343625
aa(lp2304
F69.48613928330347
aF14.715562628049778
aaag2299
aF7.616006218863009e-05
aI01
asS'dull blue'
p2305
(lp2306
(lp2307
(lp2308
F209.4402152330607
aF22.81748243000164
aa(lp2309
F55.76677586795177
aF20.455708023024325
aa(lp2310
F67.04814221408306
aF14.910768446342537
aaag2305
aF0.00033746786176686093
aI00
asS'hazel'
p2311
(lp2312
(lp2313
(lp2314
F65.43344652691248
aF40.091218759030795
aa(lp2315
F64.14120070390399
aF20.768437659594877
aa(lp2316
F60.559477124181335
aF17.045090808797593
aaag2311
aF4.924141951851084e-05
aI00
asS'salmon'
p2317
(lp2318
(lp2319
(lp2320
F3.9489836145505817
aF13.591562241676558
aa(lp2321
F55.45678147565145
aF14.58309967666826
aa(lp2322
F90.34452118421599
aF7.7089558079178255
aaag2317
aF0.005418525803816932
aI01
asS'periwinkle blue'
p2323
(lp2324
(lp2325
(lp2326
F230.98668674634774
aF22.836492607422805
aa(lp2327
F52.53545952197221
aF18.922050862618985
aa(lp2328
F85.28749681690883
aF11.517132615712521
aaag2323
aF0.0002527726201950223
aI00
asS'pale blue-green'
p2329
(lp2330
(lp2331
(lp2332
F151.79216474932105
aF20.295357926962744
aa(lp2333
F44.00364537562368
aF21.972311623334665
aa(lp2334
F87.90505675954341
aF10.64846467816891
aaag2329
aF4.989797177875764e-05
aI00
asS'pale brown'
p2335
(lp2336
(lp2337
(lp2338
F30.83168246679711
aF17.063653557174568
aa(lp2339
F43.97799548501511
aF16.38178642082135
aa(lp2340
F69.96480643539442
aF13.515952223591247
aaag2335
aF0.000281660919645882
aI01
asS'dark grey'
p2341
(lp2342
(lp2343
(lp2344
F166.94682881225376
aF96.87946546484044
aa(lp2345
F27.270393537653778
aF18.92100600572487
aa(lp2346
F32.79903220928492
aF12.51793786393842
aaag2341
aF0.0015323929754160572
aI00
asS'greyish'
p2347
(lp2348
(lp2349
(lp2350
F29.01072875171412
aF97.59456077736198
aa(lp2351
F22.55183118761469
aF13.046826707448846
aa(lp2352
F64.36578171091325
aF18.614396143141434
aaag2347
aF7.419040540788965e-05
aI01
asS'warm blue'
p2353
(lp2354
(lp2355
(lp2356
F228.15236025888305
aF23.232831620394897
aa(lp2357
F74.93178381071556
aF16.35563362447244
aa(lp2358
F75.75757575757663
aF14.663597950737065
aaag2353
aF5.0554524039004455e-05
aI00
asS'raw sienna'
p2359
(lp2360
(lp2361
(lp2362
F30.044572525766892
aF12.591841359808539
aa(lp2363
F80.1746332093457
aF12.641021763107805
aa(lp2364
F67.75114984265308
aF13.157060493089206
aaag2359
aF5.31807330799917e-05
aI01
asS'hot purple'
p2365
(lp2366
(lp2367
(lp2368
F-62.606993973622544
aF13.83894872836905
aa(lp2369
F82.20585329604559
aF13.200846827244423
aa(lp2370
F84.25977102250306
aF11.211067469352704
aaag2365
aF0.00019565257355354972
aI01
asS'red-pink'
p2371
(lp2372
(lp2373
(lp2374
F-13.928183068127996
aF11.461870876849162
aa(lp2375
F77.50514620007809
aF14.690839845167895
aa(lp2376
F84.84816148681769
aF10.619197490755855
aaag2371
aF0.0002895395467688437
aI01
asS'bright sea green'
p2377
(lp2378
(lp2379
(lp2380
F151.46110430182998
aF14.91583112753744
aa(lp2381
F79.74634914064862
aF15.68331154156249
aa(lp2382
F91.60675381263749
aF6.684475675400282
aaag2377
aF4.72717627377704e-05
aI00
asS'light gold'
p2383
(lp2384
(lp2385
(lp2386
F54.249005037227846
aF9.33463191858768
aa(lp2387
F61.305725061672966
aF13.997943233146808
aa(lp2388
F88.86592474827971
aF7.92008296382629
aaag2383
aF4.8584867258264024e-05
aI00
asS'dark mustard'
p2389
(lp2390
(lp2391
(lp2392
F48.15953678223815
aF8.590141261770059
aa(lp2393
F84.26854498568686
aF12.72038944902554
aa(lp2394
F66.30024982966255
aF12.871220546050171
aaag2389
aF0.0001700470354039241
aI00
asS'pale orange'
p2395
(lp2396
(lp2397
(lp2398
F29.989306498692997
aF10.50878890941015
aa(lp2399
F64.78510952773478
aF13.0643473969064
aa(lp2400
F92.02953908836452
aF6.1465524850614175
aaag2395
aF0.0004549907163510401
aI01
asS'light lime green'
p2401
(lp2402
(lp2403
(lp2404
F98.56154905851614
aF21.953317992765577
aa(lp2405
F62.74177926777369
aF17.176673920286447
aa(lp2406
F91.81626976050269
aF6.679346165959106
aaag2401
aF0.0001897436032113284
aI00
asS'purplish red'
p2407
(lp2408
(lp2409
(lp2410
F-19.487335722002392
aF13.211083967188278
aa(lp2411
F74.0915151242181
aF17.858271481109934
aa(lp2412
F64.67746518897465
aF14.311264093774934
aaag2407
aF9.060421191405994e-05
aI01
asS'reddish purple'
p2413
(lp2414
(lp2415
(lp2416
F-34.6804061264372
aF18.091238901190046
aa(lp2417
F75.52685493690744
aF16.89806760543699
aa(lp2418
F62.79290728637193
aF15.665695233681994
aaag2413
aF0.0004254458646399336
aI01
asS'sea blue'
p2419
(lp2420
(lp2421
(lp2422
F195.95945392037726
aF20.161886380661223
aa(lp2423
F71.91585675014107
aF19.460403786986298
aa(lp2424
F71.79179836624192
aF16.795197320621956
aaag2419
aF0.0009408393889336804
aI00
asS'dusty pink'
p2425
(lp2426
(lp2427
(lp2428
F-13.296010172115437
aF21.16141642947698
aa(lp2429
F40.27674225662949
aF14.106974300609137
aa(lp2430
F81.9704396910296
aF9.5884017583076
aaag2425
aF0.00034665959341031625
aI01
asS'vibrant blue'
p2431
(lp2432
(lp2433
(lp2434
F224.60250154571602
aF22.26125813559249
aa(lp2435
F89.39300343568154
aF8.405969710261246
aa(lp2436
F86.8712702472337
aF11.155658560605831
aaag2431
aF6.040280794270662e-05
aI00
asS'gold'
p2437
(lp2438
(lp2439
(lp2440
F49.16550311306667
aF8.719830549952027
aa(lp2441
F81.02647630675366
aF13.535593782692002
aa(lp2442
F81.70078897433307
aF12.130258179871914
aaag2437
aF0.0023202556877122307
aI01
asS'bluey green'
p2443
(lp2444
(lp2445
(lp2446
F157.00888782585167
aF14.962478778672013
aa(lp2447
F68.51239163033976
aF19.690598494269274
aa(lp2448
F73.22616002922798
aF16.455269919526618
aaag2443
aF0.00010570491389973658
aI00
asS'flesh pink'
p2449
(lp2450
(lp2451
(lp2452
F8.103478105430963
aF17.14291623032302
aa(lp2453
F39.65140057171363
aF12.67507014898185
aa(lp2454
F91.51871657754091
aF5.885170826166165
aaag2449
aF7.222074862714923e-05
aI01
asS'sage'
p2455
(lp2456
(lp2457
(lp2458
F103.2246391485781
aF29.658765440438483
aa(lp2459
F41.88954921005382
aF18.494242453875568
aa(lp2460
F69.88293463244342
aF14.86586853520941
aaag2455
aF0.0010623015570793404
aI00
asS'royal purple'
p2461
(lp2462
(lp2463
(lp2464
F-78.43364110293234
aF21.12171969017136
aa(lp2465
F79.10710633380945
aF15.465202484972062
aa(lp2466
F57.1749419407945
aF18.53389004460223
aaag2461
aF0.002189601787923115
aI01
asS'pea soup'
p2467
(lp2468
(lp2469
(lp2470
F73.38385657572768
aF17.40367453533656
aa(lp2471
F70.74318466110647
aF19.08499678309747
aa(lp2472
F71.55597722960404
aF13.37516556800062
aaag2467
aF0.0002442374408118137
aI00
asS'puke yellow'
p2473
(lp2474
(lp2475
(lp2476
F61.21870464728689
aF10.013889245391246
aa(lp2477
F78.87543754678298
aF15.026273331236078
aa(lp2478
F79.59947712418507
aF11.266520919929645
aaag2473
aF0.0002462070975925542
aI00
asS'seaweed'
p2479
(lp2480
(lp2481
(lp2482
F127.91726896015692
aF35.90593830673935
aa(lp2483
F65.35775284263507
aF22.631959085095826
aa(lp2484
F66.58622423328377
aF20.553149956568753
aaag2479
aF7.68166144488769e-05
aI00
asS'rouge'
p2485
(lp2486
(lp2487
(lp2488
F-10.987556648086448
aF24.8530951055199
aa(lp2489
F72.88863672206043
aF18.01446734904904
aa(lp2490
F70.87511514672826
aF15.53776460973178
aaag2485
aF9.782628677677486e-05
aI01
asS'purple grey'
p2491
(lp2492
(lp2493
(lp2494
F-65.03223993266575
aF43.38033435902576
aa(lp2495
F26.60464948725244
aF12.15033525089276
aa(lp2496
F59.32249482707776
aF15.012565613525993
aaag2491
aF0.0006532694989455771
aI01
asS'earth'
p2497
(lp2498
(lp2499
(lp2500
F32.057640495654766
aF26.675548228555613
aa(lp2501
F66.38088124782615
aF21.267588643021874
aa(lp2502
F61.40736668499155
aF14.95000629094339
aaag2497
aF7.025109184640879e-05
aI01
asS'deep red'
p2503
(lp2504
(lp2505
(lp2506
F-4.263925737625914
aF9.561210695870427
aa(lp2507
F87.82537776298845
aF10.665277475735316
aa(lp2508
F59.69028927841777
aF14.116639573539894
aaag2503
aF0.00035913408635500566
aI01
asS'moss green'
p2509
(lp2510
(lp2511
(lp2512
F99.64160563424026
aF27.432400105187767
aa(lp2513
F59.29652095957556
aF21.861627583949
aa(lp2514
F60.81650570676003
aF16.363086211346353
aaag2509
aF0.0009677580316037996
aI00
asS'bright purple'
p2515
(lp2516
(lp2517
(lp2518
F-72.12462780734037
aF14.86352120840686
aa(lp2519
F81.2778717592297
aF13.460038959759034
aa(lp2520
F84.39825196941023
aF11.723805705053309
aaag2515
aF0.0026866118489299513
aI01
asS'violet red'
p2521
(lp2522
(lp2523
(lp2524
F330.42548935165996
aF15.788435945294152
aa(lp2525
F81.06151010306444
aF14.25301392214844
aa(lp2526
F68.11764705882666
aF16.22889899622367
aaag2521
aF5.9089703422213004e-05
aI00
asS'key lime'
p2527
(lp2528
(lp2529
(lp2530
F101.35519713861025
aF23.836820276515642
aa(lp2531
F63.497895191685956
aF20.90525680090516
aa(lp2532
F91.58321179711817
aF7.22469218134207
aaag2527
aF7.944282348986415e-05
aI00
asS'greenish turquoise'
p2533
(lp2534
(lp2535
(lp2536
F153.5270498921109
aF15.67183074279303
aa(lp2537
F73.60078074539572
aF19.589758327522468
aa(lp2538
F81.0476190476257
aF13.945215476025728
aaag2533
aF4.595865821727678e-05
aI00
asS'very light blue'
p2539
(lp2540
(lp2541
(lp2542
F176.21148491901357
aF33.77495311371382
aa(lp2543
F24.29326341062622
aF16.081924334225548
aa(lp2544
F94.22969187675046
aF5.0252694162223674
aaag2539
aF0.0002297932910863839
aI00
asS'greenish blue'
p2545
(lp2546
(lp2547
(lp2548
F169.21858281029427
aF18.96524451912689
aa(lp2549
F67.56824757267603
aF20.868670722127902
aa(lp2550
F69.29568627451135
aF17.172482230121208
aaag2545
aF0.00041034516265425693
aI00
asS'bluish grey'
p2551
(lp2552
(lp2553
(lp2554
F198.20299936866581
aF39.84118341350718
aa(lp2555
F27.404657555506205
aF15.031246402052643
aa(lp2556
F64.20352837705086
aF16.599284021145042
aaag2551
aF0.0004976666132670829
aI00
asS'purplish pink'
p2557
(lp2558
(lp2559
(lp2560
F-47.764024614012335
aF17.847458619193823
aa(lp2561
F63.63282686322839
aF21.228914660985104
aa(lp2562
F84.70912868458676
aF10.976553378185935
aaag2557
aF0.00039655756518907395
aI01
asS'muddy green'
p2563
(lp2564
(lp2565
(lp2566
F80.4638598792465
aF25.96995988513054
aa(lp2567
F63.57114679591792
aF20.086298097549367
aa(lp2568
F53.10672365831975
aF15.551125821892368
aaag2563
aF0.0001897436032113284
aI00
asS'black'
p2569
(lp2570
(lp2571
(lp2572
F-8.276578739927075
aF102.99721605165207
aa(lp2573
F63.66469333468917
aF25.39637646459295
aa(lp2574
F19.189671361502498
aF15.78317471402517
aaag2569
aF0.004661521047752359
aI01
asS'cerise'
p2575
(lp2576
(lp2577
(lp2578
F-26.652243396130224
aF27.095197574713534
aa(lp2579
F79.51937551033433
aF15.849835942639148
aa(lp2580
F82.27290916366668
aF12.810193906866418
aaag2575
aF0.00019302636451256247
aI01
asS'indian red'
p2581
(lp2582
(lp2583
(lp2584
F4.244075171717056
aF10.77865623161949
aa(lp2585
F74.77313194452431
aF16.083492437431815
aa(lp2586
F62.999470058295934
aF14.534480003079896
aaag2581
aF4.8584867258264024e-05
aI01
asS'denim blue'
p2587
(lp2588
(lp2589
(lp2590
F215.33691131784377
aF16.307520737391123
aa(lp2591
F63.22430426784042
aF18.6998404486812
aa(lp2592
F58.97675626541776
aF15.597298198541095
aaag2587
aF0.00019827878259453697
aI00
asS'darker purple'
p2593
(lp2594
(lp2595
(lp2596
F290.5237875962545
aF25.638407096404762
aa(lp2597
F70.37100896840258
aF19.13812963224993
aa(lp2598
F57.21589159223717
aF19.963575470540167
aaag2593
aF0.00012540148170714092
aI00
asS'pumpkin'
p2599
(lp2600
(lp2601
(lp2602
F28.98179329118408
aF9.709115196950835
aa(lp2603
F84.92661526150194
aF10.560666717373199
aa(lp2604
F86.36646791848368
aF8.6843080462824
aaag2599
aF0.0004339810440231422
aI01
asS'pale lavender'
p2605
(lp2606
(lp2607
(lp2608
F-70.5185393209548
aF35.15812508037263
aa(lp2609
F22.9055305079833
aF13.321479946789982
aa(lp2610
F87.86832164058654
aF9.419747653238284
aaag2605
aF0.00021469258910070723
aI01
asS'dark blue-grey'
p2611
(lp2612
(lp2613
(lp2614
F208.5022569140293
aF26.353246823424623
aa(lp2615
F50.64736595804656
aF21.60271769349436
aa(lp2616
F39.402427637723235
aF13.165441589177219
aaag2611
aF0.00011030077972146427
aI00
asS'dandelion'
p2617
(lp2618
(lp2619
(lp2620
F53.90913539555608
aF12.69507755585322
aa(lp2621
F78.47296041023588
aF15.781577242143381
aa(lp2622
F91.5899403239598
aF7.235952333292993
aaag2617
aF6.040280794270662e-05
aI00
asS'pastel orange'
p2623
(lp2624
(lp2625
(lp2626
F25.811956995829348
aF9.88450848578751
aa(lp2627
F63.94818715595351
aF12.801418614419678
aa(lp2628
F92.0227038183649
aF4.918877983512875
aaag2623
aF7.484695766813646e-05
aI01
asS'kermit green'
p2629
(lp2630
(lp2631
(lp2632
F104.76091921318847
aF20.299199817660718
aa(lp2633
F80.90838124419572
aF15.399156765229492
aa(lp2634
F78.76690783265241
aF12.311006365887314
aaag2629
aF0.00012277527266615367
aI00
asS'foam green'
p2635
(lp2636
(lp2637
(lp2638
F135.45482597232692
aF24.6172242202305
aa(lp2639
F54.630744006654666
aF22.15469063132463
aa(lp2640
F85.43547651618836
aF10.942570977216958
aaag2635
aF5.6463494381225754e-05
aI00
asS'electric pink'
p2641
(lp2642
(lp2643
(lp2644
F322.06640585507995
aF14.583334212574318
aa(lp2645
F84.98320297805205
aF13.532924469155734
aa(lp2646
F93.09350186355042
aF6.372467376831213
aaag2641
aF7.944282348986415e-05
aI00
asS'watermelon'
p2647
(lp2648
(lp2649
(lp2650
F-1.640969353123952
aF29.725581354622726
aa(lp2651
F74.42738185547546
aF13.946460433172893
aa(lp2652
F91.17983193277196
aF8.798095288750389
aaag2647
aF0.00011489664554319195
aI01
asS'light grass green'
p2653
(lp2654
(lp2655
(lp2656
F105.23466887252933
aF21.802884698342677
aa(lp2657
F67.15128936345532
aF16.897127571612984
aa(lp2658
F84.63078848560642
aF9.653120832769202
aaag2653
aF6.171591246320024e-05
aI00
asS'brownish green'
p2659
(lp2660
(lp2661
(lp2662
F67.9002166875167
aF18.352849293604137
aa(lp2663
F67.02154303464985
aF20.25493868698594
aa(lp2664
F54.908350305500804
aF15.296665764800698
aaag2659
aF0.00032236715978118427
aI00
asS'skin tone'
p2665
(lp2666
(lp2667
(lp2668
F27.829968149809126
aF14.17973123833183
aa(lp2669
F39.044915625874225
aF11.629216403432348
aa(lp2670
F92.1139705882359
aF6.49860881347013
aaag2665
aF8.403868931159183e-05
aI01
asS'ugly purple'
p2671
(lp2672
(lp2673
(lp2674
F-58.8483415682055
aF30.80922847734
aa(lp2675
F60.54460126975684
aF23.59632792282269
aa(lp2676
F69.60990712074526
aF17.798535637765326
aaag2671
aF6.237246472344705e-05
aI01
asS'leather'
p2677
(lp2678
(lp2679
(lp2680
F26.29782039573977
aF18.03853910667985
aa(lp2681
F66.52483556445945
aF18.671412129093053
aa(lp2682
F64.84896661367972
aF16.987078670955043
aaag2677
aF4.8584867258264024e-05
aI01
asS'red-purple'
p2683
(lp2684
(lp2685
(lp2686
F-32.62388990265847
aF19.100834152264515
aa(lp2687
F76.85241613020357
aF16.029193310362174
aa(lp2688
F63.10104395392746
aF14.654938638014766
aaag2683
aF0.00033418510046562684
aI01
asS'dark sage'
p2689
(lp2690
(lp2691
(lp2692
F114.2118348441213
aF32.85968084466675
aa(lp2693
F46.9310602121613
aF17.464276379793663
aa(lp2694
F51.4231499051226
aF13.286896328366794
aaag2689
aF6.105936020295343e-05
aI00
asS'topaz'
p2695
(lp2696
(lp2697
(lp2698
F155.27385383608618
aF73.80175967836965
aa(lp2699
F70.49645496177794
aF19.586777822827063
aa(lp2700
F78.27858416093765
aF17.589432078081167
aaag2695
aF5.0554524039004455e-05
aI00
asS'caramel'
p2701
(lp2702
(lp2703
(lp2704
F35.04484341598405
aF9.390287343947398
aa(lp2705
F75.26531950419232
aF15.690017932915362
aa(lp2706
F74.45248868778773
aF10.675813611891266
aaag2701
aF8.535179383208545e-05
aI01
asS'dirty pink'
p2707
(lp2708
(lp2709
(lp2710
F-13.525532167692125
aF23.809761189053493
aa(lp2711
F42.28095459092626
aF15.109704772333277
aa(lp2712
F80.31512605041843
aF9.7430659280667
aaag2707
aF0.00011030077972146427
aI01
asS'electric lime'
p2713
(lp2714
(lp2715
(lp2716
F98.12297724370998
aF19.962490676103034
aa(lp2717
F85.40473183412638
aF11.919624133791684
aa(lp2718
F93.22440087146111
aF6.073939665244465
aaag2713
aF4.72717627377704e-05
aI00
asS'deep pink'
p2719
(lp2720
(lp2721
(lp2722
F-27.87033874196068
aF15.547255998684022
aa(lp2723
F78.45986703092574
aF14.839249639202288
aa(lp2724
F81.11880046136147
aF11.879464088156597
aaag2719
aF0.00046877831381622316
aI01
asS'golden yellow'
p2725
(lp2726
(lp2727
(lp2728
F48.90676345522193
aF6.859402429351642
aa(lp2729
F82.40231335168843
aF12.628387690234518
aa(lp2730
F91.03754064440248
aF7.278300108930756
aaag2725
aF0.00026130779957823084
aI00
asS'yellowish green'
p2731
(lp2732
(lp2733
(lp2734
F81.06637034331253
aF18.133939971603546
aa(lp2735
F76.56479490682668
aF15.778128132481598
aa(lp2736
F82.72386373904585
aF11.964038674218786
aaag2731
aF0.0005698873618942321
aI00
asS'bright magenta'
p2737
(lp2738
(lp2739
(lp2740
F314.1815401233814
aF15.6441423097526
aa(lp2741
F85.4822391354388
aF11.518154905100284
aa(lp2742
F88.69099491648467
aF9.046616153721285
aaag2737
aF0.0001418152882133112
aI00
asS'dark sky blue'
p2743
(lp2744
(lp2745
(lp2746
F209.65808648437266
aF17.186922644477765
aa(lp2747
F70.46003659840727
aF17.483300946754568
aa(lp2748
F81.70420903591267
aF13.049319570117584
aaag2743
aF0.0003000443829327927
aI00
asS'jade'
p2749
(lp2750
(lp2751
(lp2752
F138.93070612774508
aF29.93134329414797
aa(lp2753
F67.94758963418879
aF21.272257498415044
aa(lp2754
F70.61708045740139
aF16.271085099732336
aaag2749
aF0.00037489134060092916
aI00
asS'avocado green'
p2755
(lp2756
(lp2757
(lp2758
F86.05782328908944
aF20.290009211133505
aa(lp2759
F68.7691264093719
aF18.411752137264404
aa(lp2760
F68.19401444788336
aF14.661887492239137
aaag2755
aF7.484695766813646e-05
aI00
asS'muddy yellow'
p2761
(lp2762
(lp2763
(lp2764
F55.850672013661516
aF10.0640731787818
aa(lp2765
F75.52931327299895
aF17.010424181441056
aa(lp2766
F77.65118679050103
aF12.933292746618712
aaag2761
aF6.237246472344705e-05
aI01
asS'orange-yellow'
p2767
(lp2768
(lp2769
(lp2770
F42.031594309668655
aF7.4175450258555236
aa(lp2771
F82.62803577389799
aF12.643047914585797
aa(lp2772
F91.88421192404621
aF6.698481423333376
aaag2767
aF0.0002908526512893373
aI00
asS'neon red'
p2773
(lp2774
(lp2775
(lp2776
F-6.274442807747312
aF18.39711016959769
aa(lp2777
F88.74637382664932
aF8.942958021271135
aa(lp2778
F93.2060096765987
aF6.884484193022729
aaag2773
aF5.0554524039004455e-05
aI01
asS'bright yellow'
p2779
(lp2780
(lp2781
(lp2782
F60.09230075899645
aF6.528311465579053
aa(lp2783
F86.07030235901858
aF11.473770073413007
aa(lp2784
F96.11082190988348
aF3.364552697651924
aaag2779
aF0.00022257121622366898
aI00
asS'puke brown'
p2785
(lp2786
(lp2787
(lp2788
F48.233376205403566
aF10.780688576980392
aa(lp2789
F75.17228877609455
aF19.03996933602962
aa(lp2790
F59.44385026738182
aF13.338929497546138
aaag2785
aF7.222074862714923e-05
aI00
asS'sea'
p2791
(lp2792
(lp2793
(lp2794
F181.15617714878482
aF31.180454409836425
aa(lp2795
F62.53479450295863
aF22.080704630464602
aa(lp2796
F73.99143565472066
aF18.907622826981065
aaag2791
aF5.712004664147257e-05
aI00
asS'violet'
p2797
(lp2798
(lp2799
(lp2800
F-78.41108535024878
aF23.721035124971664
aa(lp2801
F68.63756305767677
aF20.997821968026237
aa(lp2802
F73.8412032635767
aF17.830861053965556
aaag2797
aF0.009465513935978276
aI01
asS'very dark purple'
p2803
(lp2804
(lp2805
(lp2806
F-64.04409732172299
aF33.48977150165373
aa(lp2807
F65.45156820528224
aF22.48015353814784
aa(lp2808
F26.13507625272489
aF10.609942155893902
aaag2803
aF8.86345551333195e-05
aI01
asS'peachy pink'
p2809
(lp2810
(lp2811
(lp2812
F2.625334379609444
aF16.33982900393053
aa(lp2813
F46.26202712841891
aF14.26888590768567
aa(lp2814
F92.83518812930001
aF5.621600040242903
aaag2809
aF4.8584867258264024e-05
aI01
asS'light maroon'
p2815
(lp2816
(lp2817
(lp2818
F-12.397260895086388
aF17.002516415018665
aa(lp2819
F62.57011573734949
aF19.072811359716965
aa(lp2820
F66.92436974789517
aF11.969769452271446
aaag2815
aF0.0002297932910863839
aI01
asS'pale yellow'
p2821
(lp2822
(lp2823
(lp2824
F60.85665702482901
aF10.47504723811707
aa(lp2825
F50.62860538734859
aF14.60576140948396
aa(lp2826
F94.70470823059986
aF4.88171348754115
aaag2821
aF0.000986798047150957
aI00
asS'light purple'
p2827
(lp2828
(lp2829
(lp2830
F-75.64957966049434
aF25.737850560109116
aa(lp2831
F49.702369650227574
aF20.965229322348897
aa(lp2832
F83.78828199378736
aF11.740106300162372
aaag2827
aF0.0106958928716808
aI01
asS'duck egg blue'
p2833
(lp2834
(lp2835
(lp2836
F174.23340426256635
aF30.39238441618854
aa(lp2837
F33.726113018319396
aF19.679086763666195
aa(lp2838
F87.92079207920493
aF8.645261403320369
aaag2833
aF6.631177828492793e-05
aI00
asS'light rose'
p2839
(lp2840
(lp2841
(lp2842
F-12.415097428401383
aF27.549516911571903
aa(lp2843
F34.7235105654489
aF15.208909786736339
aa(lp2844
F89.0980392156814
aF7.61125788571395
aaag2839
aF9.520007773578761e-05
aI01
asS'baby shit green'
p2845
(lp2846
(lp2847
(lp2848
F73.58493880932748
aF18.43525602079989
aa(lp2849
F69.71536572043036
aF20.40929126963775
aa(lp2850
F68.77100840336072
aF16.781937475419753
aaag2845
aF7.353385314764285e-05
aI00
asS'cobalt blue'
p2851
(lp2852
(lp2853
(lp2854
F227.48796734959566
aF20.645068205997635
aa(lp2855
F76.99711208965633
aF19.100806245412763
aa(lp2856
F69.52251270878459
aF17.58095232276724
aaag2851
aF0.0004254458646399336
aI00
asS'mud'
p2857
(lp2858
(lp2859
(lp2860
F36.508100041793675
aF22.149637530220733
aa(lp2861
F62.321781999668396
aF22.013791299253906
aa(lp2862
F53.03485328557821
aF16.639296231269068
aaag2857
aF0.0002803478151253884
aI01
asS'frog green'
p2863
(lp2864
(lp2865
(lp2866
F106.17386006762906
aF22.854007466408184
aa(lp2867
F79.22632458554241
aF17.301866757744822
aa(lp2868
F76.88651218063029
aF16.295918853245322
aaag2863
aF6.49986737644343e-05
aI01
asS'horrible'
p2869
(lp2870
(lp2871
(lp2872
F36.43791990793244
aF77.21242456869504
aa(lp2873
F70.91911422329751
aF20.182589121251752
aa(lp2874
F79.11401597676172
aF17.605726660998933
aaag2869
aF5.31807330799917e-05
aI01
asS'vivid green'
p2875
(lp2876
(lp2877
(lp2878
F117.90936578723999
aF16.24135711824521
aa(lp2879
F86.81117247418645
aF10.87104531649282
aa(lp2880
F84.41176470588333
aF11.349565461534805
aaag2875
aF6.302901698369387e-05
aI00
asS'faded blue'
p2881
(lp2882
(lp2883
(lp2884
F213.28555951674426
aF24.70988521345484
aa(lp2885
F50.83752267853928
aF18.82966349927718
aa(lp2886
F74.18894830659804
aF13.656034961134436
aaag2881
aF0.0001949960212933029
aI00
asS'sickly green'
p2887
(lp2888
(lp2889
(lp2890
F89.97633770539227
aF25.598286448921474
aa(lp2891
F69.94233055804516
aF19.669347603176064
aa(lp2892
F76.37862224535799
aF15.0318225145641
aaag2887
aF0.0001483808108157793
aI01
asS'plum purple'
p2893
(lp2894
(lp2895
(lp2896
F-59.01201041246225
aF24.54997650516249
aa(lp2897
F68.01819275517528
aF19.36032530864686
aa(lp2898
F50.6463326071195
aF17.532711228964587
aaag2893
aF5.31807330799917e-05
aI01
asS'sandy yellow'
p2899
(lp2900
(lp2901
(lp2902
F55.062549288954365
aF10.944409719312963
aa(lp2903
F59.109918824853054
aF16.965519578976192
aa(lp2904
F88.3353341336561
aF8.386408899537905
aaag2899
aF6.434212150418749e-05
aI01
asS'very pale green'
p2905
(lp2906
(lp2907
(lp2908
F104.35666246906942
aF25.207651182515466
aa(lp2909
F28.24263805947913
aF13.374193707501354
aa(lp2910
F91.43288084464504
aF8.315230209626376
aaag2905
aF5.974625568245981e-05
aI00
asS'yellowish brown'
p2911
(lp2912
(lp2913
(lp2914
F47.53152390850705
aF9.583987269898454
aa(lp2915
F78.16043837908164
aF15.928586456788437
aa(lp2916
F67.13254901960599
aF14.294021657064151
aaag2911
aF0.00016413806506170278
aI01
asS'light blue grey'
p2917
(lp2918
(lp2919
(lp2920
F194.43505201888007
aF35.64670803273253
aa(lp2921
F25.337990022644224
aF13.747066997901952
aa(lp2922
F80.87768440709418
aF11.16864275463699
aaag2917
aF0.0001240883771866473
aI00
asS'bright orange'
p2923
(lp2924
(lp2925
(lp2926
F22.603914444299253
aF16.74951172249138
aa(lp2927
F89.76611544050586
aF9.207056602295763
aa(lp2928
F95.21253756977364
aF5.440962998446132
aaag2923
aF0.00017989531930762625
aI01
asS'shit brown'
p2929
(lp2930
(lp2931
(lp2932
F36.75987437796153
aF15.322852267251482
aa(lp2933
F77.4274302919642
aF17.48737745481459
aa(lp2934
F50.403255641879234
aF14.676251568930402
aaag2929
aF0.00013918907917232396
aI01
asS'grey purple'
p2935
(lp2936
(lp2937
(lp2938
F-65.19890734266454
aF43.01180927648505
aa(lp2939
F29.400965717006954
aF12.953390499416427
aa(lp2940
F59.00651297425817
aF14.733437231319234
aaag2935
aF0.0007471564721608711
aI01
asS'yellow-green'
p2941
(lp2942
(lp2943
(lp2944
F79.35789868164909
aF16.683281265165718
aa(lp2945
F77.02200809482893
aF15.920909333039845
aa(lp2946
F86.19004524886867
aF10.690980005471165
aaag2941
aF0.005462514805253469
aI00
asS'slate green'
p2947
(lp2948
(lp2949
(lp2950
F130.68637078767736
aF33.54010972718959
aa(lp2951
F37.34797404849025
aF18.117482226747384
aa(lp2952
F58.22076978939854
aF16.73994110230534
aaag2947
aF0.000177269110266639
aI00
asS'dark taupe'
p2953
(lp2954
(lp2955
(lp2956
F25.04008547274027
aF42.80082085752793
aa(lp2957
F43.992039268456615
aF21.790442384413062
aa(lp2958
F53.98996808024882
aF15.580748773431079
aaag2953
aF5.6463494381225754e-05
aI01
asS'umber'
p2959
(lp2960
(lp2961
(lp2962
F27.102361510515156
aF17.24712436751044
aa(lp2963
F75.7038268611388
aF17.91530061406104
aa(lp2964
F63.714759535654466
aF17.760829447157974
aaag2959
aF0.0002639340086192181
aI01
asS'greenish tan'
p2965
(lp2966
(lp2967
(lp2968
F65.77950271558288
aF17.07376878603982
aa(lp2969
F51.33657515455397
aF19.50197062272604
aa(lp2970
F74.20479302832462
aF13.496185029157665
aaag2965
aF8.27255847910982e-05
aI00
asS'bronze'
p2971
(lp2972
(lp2973
(lp2974
F41.38427526831803
aF16.390217383289183
aa(lp2975
F78.71514575790684
aF15.409091545120022
aa(lp2976
F67.37922403003788
aF14.562075492905423
aaag2971
aF0.00015428978115800062
aI01
asS'darker blue'
p2977
(lp2978
(lp2979
(lp2980
F227.5238995931439
aF19.359819426503027
aa(lp2981
F80.49941938916527
aF14.713718069058194
aa(lp2982
F64.0493827160478
aF18.10655422071117
aaag2977
aF0.000177269110266639
aI00
asS'very light green'
p2983
(lp2984
(lp2985
(lp2986
F110.26993170980383
aF26.10517360728057
aa(lp2987
F34.86906580022366
aF18.759348823300233
aa(lp2988
F93.47928168030994
aF5.925228209258091
aaag2983
aF0.00020287464841626463
aI00
asS'vivid purple'
p2989
(lp2990
(lp2991
(lp2992
F284.33748261664806
aF15.319576002818332
aa(lp2993
F85.68862020774941
aF13.290586655355737
aa(lp2994
F80.86735870819295
aF15.125033955864918
aaag2989
aF5.580694212097895e-05
aI00
asS'burnt yellow'
p2995
(lp2996
(lp2997
(lp2998
F48.84715463752338
aF8.343237085202361
aa(lp2999
F81.46124111685138
aF13.624360488835261
aa(lp3000
F82.40330994783118
aF10.918684174811283
aaag2995
aF0.00014312839273380483
aI00
asS'dark lime'
p3001
(lp3002
(lp3003
(lp3004
F90.7542808537833
aF19.989210904773593
aa(lp3005
F80.1931241270382
aF15.477952497466125
aa(lp3006
F75.88116458704424
aF11.966938735329318
aaag3001
aF0.00010833112294072383
aI00
asS'violet blue'
p3007
(lp3008
(lp3009
(lp3010
F253.9114934441515
aF15.401916401241966
aa(lp3011
F72.13889986016741
aF18.0754772149215
aa(lp3012
F75.99746366208208
aF16.973655525241313
aaag3007
aF0.0002639340086192181
aI00
asS'dusty purple'
p3013
(lp3014
(lp3015
(lp3016
F-62.33536799200724
aF35.28244611869067
aa(lp3017
F38.41601413318358
aF13.685194285817461
aa(lp3018
F58.79841591809165
aF12.760703950758506
aaag3013
aF0.00026656021766020534
aI01
asS'hot pink'
p3019
(lp3020
(lp3021
(lp3022
F-35.80030862715231
aF17.323981462332533
aa(lp3023
F83.39846524619692
aF12.373453315225595
aa(lp3024
F91.67741844212519
aF7.285870208691232
aaag3019
aF0.005459888596212482
aI01
asS'aqua'
p3025
(lp3026
(lp3027
(lp3028
F172.3558249283861
aF16.344994010757933
aa(lp3029
F71.68166890239289
aF19.16742639843476
aa(lp3030
F84.19944424875736
aF13.04805170776221
aaag3025
aF0.008881182424358614
aI00
asS'canary yellow'
p3031
(lp3032
(lp3033
(lp3034
F57.10094957311945
aF7.489469143194992
aa(lp3035
F74.65247262545462
aF16.732765600484527
aa(lp3036
F95.64779182701065
aF3.7454438255469227
aaag3031
aF0.00014050218369281758
aI00
asS'pale olive'
p3037
(lp3038
(lp3039
(lp3040
F83.00541315784527
aF20.828889435714004
aa(lp3041
F42.60521000646629
aF16.378369547575435
aa(lp3042
F78.05714285714224
aF10.57140001094502
aaag3037
aF0.00011489664554319195
aI00
asS'warm pink'
p3043
(lp3044
(lp3045
(lp3046
F-20.651007752304995
aF18.32228190961763
aa(lp3047
F66.82329892877468
aF13.949845156359928
aa(lp3048
F88.71183916604684
aF8.926575339252448
aaag3043
aF5.186762855949808e-05
aI01
asS'berry'
p3049
(lp3050
(lp3051
(lp3052
F-26.190268955272575
aF14.038928335428833
aa(lp3053
F78.94798519127008
aF14.54691723992051
aa(lp3054
F65.6840207347299
aF14.281085543435445
aaag3049
aF0.00011424009328294513
aI01
asS'eggplant'
p3055
(lp3056
(lp3057
(lp3058
F-53.08670635980402
aF28.404964291947664
aa(lp3059
F63.43694673497125
aF22.222518574652423
aa(lp3060
F42.35242210716105
aF15.49468389078984
aaag3055
aF0.0009920504652329316
aI01
asS'rose'
p3061
(lp3062
(lp3063
(lp3064
F-14.516954997653173
aF17.81432043348978
aa(lp3065
F56.17211217293736
aF19.883700147563797
aa(lp3066
F82.98616034769394
aF10.842563120235289
aaag3061
aF0.0032138233139081406
aI01
asS'medium pink'
p3067
(lp3068
(lp3069
(lp3070
F-29.1931998195847
aF18.779209336787797
aa(lp3071
F57.67314321289913
aF16.626323201999163
aa(lp3072
F90.72011105327877
aF6.743816813835485
aaag3067
aF7.419040540788965e-05
aI01
asS'lightish purple'
p3073
(lp3074
(lp3075
(lp3076
F288.85040742428123
aF22.361919818861388
aa(lp3077
F60.97941971241505
aF18.45234741877049
aa(lp3078
F77.46995572422365
aF13.786559257277665
aaag3073
aF6.105936020295343e-05
aI00
asS'dusky blue'
p3079
(lp3080
(lp3081
(lp3082
F213.22765671657748
aF24.01967514178213
aa(lp3083
F53.665555056386445
aF20.189883244810755
aa(lp3084
F66.04408995236378
aF16.281038907149014
aaag3079
aF0.00011620975006368557
aI00
asS'neon blue'
p3085
(lp3086
(lp3087
(lp3088
F198.87299233871838
aF25.28130199542068
aa(lp3089
F84.54319630236142
aF12.7600827555386
aa(lp3090
F92.06341259908343
aF6.931293876174191
aaag3085
aF0.00030857956231600123
aI00
asS'butter yellow'
p3091
(lp3092
(lp3093
(lp3094
F57.01434089907003
aF7.723453996264865
aa(lp3095
F56.40225540396603
aF16.03038103099112
aa(lp3096
F95.58320764202946
aF3.4489207767624204
aaag3091
aF0.00010242215259850254
aI01
asS'pale grey'
p3097
(lp3098
(lp3099
(lp3100
F144.20162482292088
aF88.98255608941837
aa(lp3101
F12.858686833635337
aF10.267912334325695
aa(lp3102
F86.13887660327144
aF9.390615225903773
aaag3097
aF8.732145061282587e-05
aI00
asS'lighter blue'
p3103
(lp3104
(lp3105
(lp3106
F206.52078268933906
aF23.63545460601516
aa(lp3107
F64.85419338040404
aF22.332861585869853
aa(lp3108
F87.1494956364072
aF9.695409979798264
aaag3103
aF0.00022716708204539664
aI00
asS'pastel purple'
p3109
(lp3110
(lp3111
(lp3112
F-78.9708633781991
aF26.833673143491158
aa(lp3113
F39.44806360047557
aF17.123358435085137
aa(lp3114
F83.4977694781626
aF12.360029041070012
aaag3109
aF0.0004963535087465892
aI01
asS'pale rose'
p3115
(lp3116
(lp3117
(lp3118
F-7.815756900787326
aF25.56054336809795
aa(lp3119
F30.543691753175533
aF15.254600978618322
aa(lp3120
F88.03443328550813
aF9.72438527707621
aaag3115
aF8.075592801035776e-05
aI01
asS'steel grey'
p3121
(lp3122
(lp3123
(lp3124
F182.47357732509272
aF66.73708646768938
aa(lp3125
F23.83504332618767
aF14.029349444346026
aa(lp3126
F57.53824606765741
aF17.169173719278024
aaag3121
aF0.00023898502272983924
aI00
asS'pinky red'
p3127
(lp3128
(lp3129
(lp3130
F-12.314891345514338
aF9.627975539479145
aa(lp3131
F79.71672457523256
aF13.606410402656612
aa(lp3132
F85.12908496732169
aF10.289837137841438
aaag3127
aF0.00015757254245923468
aI01
asS'dull purple'
p3133
(lp3134
(lp3135
(lp3136
F-58.863926597471355
aF33.18394463822703
aa(lp3137
F41.03978147519535
aF15.329572492684974
aa(lp3138
F59.48048378229907
aF14.457158224806358
aaag3133
aF0.00028100436738563516
aI01
asS'brownish yellow'
p3139
(lp3140
(lp3141
(lp3142
F51.36142410356246
aF8.474200363516463
aa(lp3143
F75.17834209052762
aF15.607109863705004
aa(lp3144
F75.28006184552618
aF12.724189460672203
aaag3139
aF0.0001831780806088603
aI01
asS'wine red'
p3145
(lp3146
(lp3147
(lp3148
F-14.1956636485692
aF12.181524855971082
aa(lp3149
F83.0646131499293
aF14.086766529513042
aa(lp3150
F55.387205387206066
aF14.36908428312847
aaag3145
aF0.0001299973475288686
aI01
asS'wisteria'
p3151
(lp3152
(lp3153
(lp3154
F-75.7800268764584
aF35.89796428330411
aa(lp3155
F46.71341103987973
aF21.8409579002916
aa(lp3156
F78.53508345487357
aF13.228521151960672
aaag3151
aF7.944282348986415e-05
aI01
asS'flesh tone'
p3157
(lp3158
(lp3159
(lp3160
F21.366458362757037
aF17.127576723712444
aa(lp3161
F41.10180640837934
aF15.02688894732927
aa(lp3162
F89.7271952259174
aF6.811338123518959
aaag3157
aF6.040280794270662e-05
aI01
asS'light lime'
p3163
(lp3164
(lp3165
(lp3166
F97.69728180038786
aF20.986847025463554
aa(lp3167
F59.707759422593845
aF19.336101546187663
aa(lp3168
F92.16153127918209
aF6.6657037937093815
aaag3163
aF0.00011030077972146427
aI01
asS'orange-brown'
p3169
(lp3170
(lp3171
(lp3172
F28.261534898249145
aF9.265809796210185
aa(lp3173
F81.62585858739821
aF12.654786330796465
aa(lp3174
F75.66694778269849
aF10.001428142647661
aaag3169
aF0.0007327123224354412
aI01
asS'rust red'
p3175
(lp3176
(lp3177
(lp3178
F6.953226543321185
aF9.509372497421426
aa(lp3179
F80.41833538786688
aF14.904967055393112
aa(lp3180
F66.66147253603444
aF14.236323731313204
aaag3175
aF9.913939129726849e-05
aI01
asS'light navy'
p3181
(lp3182
(lp3183
(lp3184
F216.99843955704006
aF17.77446130983222
aa(lp3185
F67.17317222903745
aF19.5956906552568
aa(lp3186
F55.21305728995695
aF15.715422364672438
aaag3181
aF0.0001175228545841792
aI00
asS'deep rose'
p3187
(lp3188
(lp3189
(lp3190
F-17.05919808060167
aF11.644151756115551
aa(lp3191
F69.62898123638533
aF16.28909073585843
aa(lp3192
F73.08508724590641
aF12.388642909382042
aaag3187
aF7.156419636690242e-05
aI01
asS'dark teal'
p3193
(lp3194
(lp3195
(lp3196
F176.2611898648163
aF18.58730284108902
aa(lp3197
F70.02330057352543
aF19.595298422297915
aa(lp3198
F47.53189344294029
aF15.100611217320633
aaag3193
aF0.001991979557588825
aI00
asS'pale lime green'
p3199
(lp3200
(lp3201
(lp3202
F97.69007509403143
aF21.1138706967027
aa(lp3203
F58.13555305766143
aF16.98770141316424
aa(lp3204
F91.59383753501645
aF6.169679377774022
aaag3199
aF9.191731643455356e-05
aI00
asS'grapefruit'
p3205
(lp3206
(lp3207
(lp3208
F1.6617601570618228
aF17.30007299967615
aa(lp3209
F65.80522340610285
aF15.857539913122872
aa(lp3210
F90.08403361344
aF8.514189799603802
aaag3205
aF4.595865821727678e-05
aI01
asS'faded pink'
p3211
(lp3212
(lp3213
(lp3214
F-18.89185983253175
aF28.049576578212328
aa(lp3215
F34.80020040864546
aF13.971530371437366
aa(lp3216
F86.50290885584444
aF8.414657681766046
aaag3211
aF0.00011949251136491962
aI01
asS'brick'
p3217
(lp3218
(lp3219
(lp3220
F6.081250847786991
aF12.103332966944965
aa(lp3221
F73.81620765667917
aF17.27659594643815
aa(lp3222
F65.7700101317123
aF14.258846991882956
aaag3217
aF0.0008640227744848034
aI01
asS'greenish yellow'
p3223
(lp3224
(lp3225
(lp3226
F69.87687421617565
aF11.551995362016335
aa(lp3227
F76.80922861359086
aF16.022909198151435
aa(lp3228
F87.10570376158137
aF10.2715639404556
aaag3223
aF0.0006920060823001389
aI00
asS'kahki'
p3229
(lp3230
(lp3231
(lp3232
F64.39484095257734
aF23.333695741680536
aa(lp3233
F50.90855232711384
aF22.96341274373682
aa(lp3234
F66.47242074400091
aF17.00523844154594
aaag3229
aF7.025109184640879e-05
aI00
asS'murky green'
p3235
(lp3236
(lp3237
(lp3238
F93.14695186132019
aF33.78334697140658
aa(lp3239
F62.18899853711884
aF21.895987574349157
aa(lp3240
F56.51672433679173
aF16.825786247585263
aaag3235
aF0.0001116138842419579
aI00
asS'mushroom'
p3241
(lp3242
(lp3243
(lp3244
F27.819817775860717
aF24.3087565845465
aa(lp3245
F33.749282809887646
aF16.06141743432458
aa(lp3246
F67.4727668845311
aF14.65211505488592
aaag3241
aF5.9089703422213004e-05
aI01
asS'mustard brown'
p3247
(lp3248
(lp3249
(lp3250
F44.62353409698748
aF7.40316746676687
aa(lp3251
F79.64576795496714
aF13.523550695876732
aa(lp3252
F65.9921568627456
aF11.89642343003866
aaag3247
aF8.206903253085139e-05
aI01
asS'dark sand'
p3253
(lp3254
(lp3255
(lp3256
F39.7214040372742
aF12.511483252753662
aa(lp3257
F56.31693094214567
aF20.921761214576062
aa(lp3258
F71.81312030984441
aF12.668935453748274
aaag3253
aF5.31807330799917e-05
aI00
asS'mustard green'
p3259
(lp3260
(lp3261
(lp3262
F67.64200865295271
aF12.358855148835852
aa(lp3263
F79.70676320398728
aF14.683056199860351
aa(lp3264
F72.36601307189575
aF13.344550406134537
aaag3259
aF0.00010833112294072383
aI00
asS'squash'
p3265
(lp3266
(lp3267
(lp3268
F40.66369010186521
aF11.348897112882424
aa(lp3269
F78.5814074517727
aF16.90129151224943
aa(lp3270
F86.39674051438574
aF9.591122630790418
aaag3265
aF5.0554524039004455e-05
aI00
asS'light light blue'
p3271
(lp3272
(lp3273
(lp3274
F176.39252400601464
aF34.2951763531751
aa(lp3275
F29.227461941075134
aF21.883642183011023
aa(lp3276
F94.25543190248786
aF4.442100231334603
aaag3271
aF4.8584867258264024e-05
aI00
asS'pale aqua'
p3277
(lp3278
(lp3279
(lp3280
F160.13057096949316
aF18.176950267408774
aa(lp3281
F40.38618515857006
aF18.4833262887948
aa(lp3282
F91.30318794184625
aF8.146295352693922
aaag3277
aF9.651318225628124e-05
aI00
asS'light indigo'
p3283
(lp3284
(lp3285
(lp3286
F249.27545549028406
aF22.947991204375164
aa(lp3287
F60.55086683108866
aF20.54644891759436
aa(lp3288
F80.45686921633299
aF14.41442887721346
aaag3283
aF0.00019893533485478376
aI00
asS'burnt umber'
p3289
(lp3290
(lp3291
(lp3292
F21.34164196181111
aF16.457587068425052
aa(lp3293
F80.13535232125471
aF14.707353721947891
aa(lp3294
F63.69942196531809
aF18.22043365299821
aaag3289
aF0.00034075062306809496
aI01
asS'darker green'
p3295
(lp3296
(lp3297
(lp3298
F117.72140778992019
aF24.714797970116216
aa(lp3299
F75.18731776285017
aF18.13902497961037
aa(lp3300
F55.80377999575241
aF15.630433095687465
aaag3295
aF0.0001818649760883667
aI00
asS'midnight blue'
p3301
(lp3302
(lp3303
(lp3304
F234.6806656877741
aF25.400040475210126
aa(lp3305
F74.84620774326851
aF18.69514202029879
aa(lp3306
F36.12272930187695
aF14.788171851068821
aaag3301
aF0.0007497826812018583
aI00
asS'light forest green'
p3307
(lp3308
(lp3309
(lp3310
F116.54552473272558
aF25.381437187015166
aa(lp3311
F60.41464845601908
aF21.679493345694866
aa(lp3312
F62.7138217250092
aF13.264943135503781
aaag3307
aF0.00021403603684046042
aI00
asS'green apple'
p3313
(lp3314
(lp3315
(lp3316
F105.66876366588633
aF20.766432898352654
aa(lp3317
F80.56119878648158
aF14.007820058385036
aa(lp3318
F82.01582387340966
aF11.596420200807557
aaag3313
aF7.484695766813646e-05
aI00
asS'red-orange'
p3319
(lp3320
(lp3321
(lp3322
F10.974755261385807
aF7.536255528912209
aa(lp3323
F84.86044622547956
aF10.51637793910892
aa(lp3324
F87.04092748210417
aF9.374660209336922
aaag3319
aF0.001654511695821964
aI01
asS'easter green'
p3325
(lp3326
(lp3327
(lp3328
F121.8269095867277
aF23.103540190731056
aa(lp3329
F60.59154546094379
aF19.000346434619363
aa(lp3330
F90.19139129755612
aF7.84957801879619
aaag3325
aF0.0001647946173219496
aI00
asS'greyish blue'
p3331
(lp3332
(lp3333
(lp3334
F200.99121744193957
aF29.823321132658027
aa(lp3335
F40.91894290942509
aF19.45215862437366
aa(lp3336
F65.09775171065513
aF15.720382242074038
aaag3331
aF0.0008955372829766504
aI00
asS'dark seafoam'
p3337
(lp3338
(lp3339
(lp3340
F154.24852537728844
aF18.16774725770351
aa(lp3341
F66.81948871612892
aF20.222169164333966
aa(lp3342
F71.70649509803984
aF14.6039021071849
aaag3337
aF8.403868931159183e-05
aI00
asS'yellow-brown'
p3343
(lp3344
(lp3345
(lp3346
F48.771016915604164
aF9.012321586173693
aa(lp3347
F77.65420491314215
aF15.390048186428634
aa(lp3348
F70.67111380634843
aF13.610117054285313
aaag3343
aF0.0006368556924394068
aI00
asS'blue-green'
p3349
(lp3350
(lp3351
(lp3352
F164.58381269219385
aF18.27456036894299
aa(lp3353
F70.7571790286126
aF19.851342342085303
aa(lp3354
F68.1601418833353
aF17.92322154985212
aaag3349
aF0.0040358267437371476
aI00
asS'light neon green'
p3355
(lp3356
(lp3357
(lp3358
F115.07536449310616
aF23.002482975405794
aa(lp3359
F72.87617908935897
aF15.232786937484105
aa(lp3360
F92.72498743087183
aF5.693515763703797
aaag3355
aF5.121107629925127e-05
aI00
asS'light plum'
p3361
(lp3362
(lp3363
(lp3364
F-42.13888258846997
aF28.665756424669798
aa(lp3365
F55.210171139457465
aF21.200410724754192
aa(lp3366
F64.49509803921565
aF13.482362601088383
aaag3361
aF0.00010504836163948979
aI01
asS'ugly'
p3367
(lp3368
(lp3369
(lp3370
F39.2666114059396
aF67.41559928323841
aa(lp3371
F61.3993177656112
aF23.854195290439595
aa(lp3372
F73.89158016147609
aF16.440419645275934
aaag3367
aF0.0009487180160566421
aI01
asS'dark cyan'
p3373
(lp3374
(lp3375
(lp3376
F181.63506665099848
aF17.259872912671607
aa(lp3377
F70.44305370642357
aF20.014724012911486
aa(lp3378
F67.04278074866374
aF17.297656043712337
aaag3373
aF0.00043332449176289534
aI00
asS'taupe'
p3379
(lp3380
(lp3381
(lp3382
F36.46467903279324
aF43.97342374154372
aa(lp3383
F39.94307787355169
aF18.815290487590605
aa(lp3384
F71.7191776995701
aF15.061597633749574
aaag3379
aF0.0018435987467730456
aI01
asS'dark fuchsia'
p3385
(lp3386
(lp3387
(lp3388
F322.00884326840276
aF15.475448062493797
aa(lp3389
F80.77576195623614
aF13.502736274848035
aa(lp3390
F67.50621375311032
aF13.620640134768752
aaag3385
aF0.00013984563143257077
aI00
asS'deep sky blue'
p3391
(lp3392
(lp3393
(lp3394
F211.70645021224837
aF17.841861700605172
aa(lp3395
F79.59251181090448
aF14.322757247110102
aa(lp3396
F85.7918552036205
aF10.716027340200435
aaag3391
aF0.00010242215259850254
aI00
asS'dark yellow'
p3397
(lp3398
(lp3399
(lp3400
F53.05893449891864
aF8.823020662782824
aa(lp3401
F80.62306271029483
aF13.782078871825357
aa(lp3402
F80.05402286149237
aF13.451041828791771
aaag3397
aF0.0010485139596141573
aI01
asS'slime green'
p3403
(lp3404
(lp3405
(lp3406
F93.69902014917673
aF26.522920021193404
aa(lp3407
F75.37632327853032
aF18.93692559063688
aa(lp3408
F78.14800759013295
aF14.984857846218057
aaag3403
aF0.00010176560033825572
aI00
asS'bottle green'
p3409
(lp3410
(lp3411
(lp3412
F121.65414565041003
aF26.219374399950564
aa(lp3413
F76.90161349128282
aF16.219698897700816
aa(lp3414
F46.43995098039296
aF17.100510351579597
aaag3409
aF8.403868931159183e-05
aI00
asS'shamrock'
p3415
(lp3416
(lp3417
(lp3418
F128.17215392635913
aF19.020516780456695
aa(lp3419
F78.21933953975378
aF16.115173692685044
aa(lp3420
F73.05109922757424
aF15.153866919877595
aaag3415
aF8.666489835257906e-05
aI00
asS'british racing green'
p3421
(lp3422
(lp3423
(lp3424
F126.98547498698248
aF26.379619255106952
aa(lp3425
F76.46976565917393
aF18.024443689882112
aa(lp3426
F35.7536764705875
aF11.804172911037671
aaag3421
aF0.00012605803396738773
aI00
asS'pale red'
p3427
(lp3428
(lp3429
(lp3430
F-0.5875032832333482
aF10.174996642981615
aa(lp3431
F62.04253876455736
aF15.237603342295708
aa(lp3432
F82.42464480148806
aF10.805272337301684
aaag3427
aF0.0002908526512893373
aI01
asS'tree green'
p3433
(lp3434
(lp3435
(lp3436
F114.78680779917802
aF22.198070365092576
aa(lp3437
F77.04428393853448
aF15.719328382829357
aa(lp3438
F62.43579121789579
aF15.590207833036917
aaag3433
aF9.323042095504717e-05
aI00
asS'light royal blue'
p3439
(lp3440
(lp3441
(lp3442
F-131.5547579231816
aF16.92475590339399
aa(lp3443
F75.72483731391411
aF15.617674326580635
aa(lp3444
F80.54298642533847
aF13.760098688991766
aaag3439
aF5.121107629925127e-05
aI01
asS'grey green'
p3445
(lp3446
(lp3447
(lp3448
F116.79993312589056
aF35.42740252234451
aa(lp3449
F34.2236553587614
aF15.606849242145996
aa(lp3450
F61.774431215372935
aF15.850832328313231
aaag3445
aF0.00262095662290527
aI00
asS'eggshell'
p3451
(lp3452
(lp3453
(lp3454
F49.1323751927581
aF70.53250154114987
aa(lp3455
F21.073603405610594
aF13.93014445280547
aa(lp3456
F93.69803921568875
aF5.999488636416582
aaag3451
aF0.00026262090409872446
aI01
asS'gross green'
p3457
(lp3458
(lp3459
(lp3460
F92.43030126834797
aF29.11129659505648
aa(lp3461
F68.53006367868778
aF20.230066524356676
aa(lp3462
F74.30065359477109
aF17.79585778055754
aaag3457
aF5.9089703422213004e-05
aI00
asS'algae green'
p3463
(lp3464
(lp3465
(lp3466
F113.39524686371446
aF32.38950838900193
aa(lp3467
F70.61994818539765
aF21.12091578742388
aa(lp3468
F71.65982672139188
aF15.075480083890543
aaag3463
aF5.6463494381225754e-05
aI00
asS'pale green'
p3469
(lp3470
(lp3471
(lp3472
F111.78309609507147
aF25.51888948807948
aa(lp3473
F45.80204006481474
aF18.760271892132558
aa(lp3474
F86.6212601802603
aF10.50779782371033
aaag3469
aF0.004712075571791364
aI00
asS'purplish brown'
p3475
(lp3476
(lp3477
(lp3478
F-8.070273744175427
aF19.837773520187415
aa(lp3479
F44.63748050978484
aF16.995174696251564
aa(lp3480
F47.387601505245435
aF16.08463348834647
aaag3475
aF6.49986737644343e-05
aI01
asS'carnation'
p3481
(lp3482
(lp3483
(lp3484
F-18.286701982505086
aF23.462708099648825
aa(lp3485
F50.731148275657
aF19.755523243553352
aa(lp3486
F91.28627450980295
aF7.902049335368166
aaag3481
aF6.565522602468112e-05
aI01
asS'grass green'
p3487
(lp3488
(lp3489
(lp3490
F108.92372095490252
aF20.386956206430245
aa(lp3491
F78.14176995744647
aF15.088013743705996
aa(lp3492
F71.85582468281451
aF14.24048750447448
aaag3487
aF0.0024555054533230737
aI00
asS'cream'
p3493
(lp3494
(lp3495
(lp3496
F54.87679673697679
aF24.51275817286435
aa(lp3497
F29.776102773162894
aF13.749081842165147
aa(lp3498
F94.59400729989095
aF5.094038374265323
aaag3493
aF0.0007583178605850669
aI01
asS'bright sky blue'
p3499
(lp3500
(lp3501
(lp3502
F194.40829657077973
aF14.247330351927749
aa(lp3503
F76.64992217508878
aF17.26352075994787
aa(lp3504
F92.88515406162546
aF6.092420876375598
aaag3499
aF0.00012868424300837498
aI00
asS'ugly yellow'
p3505
(lp3506
(lp3507
(lp3508
F59.36346433220959
aF9.740459150617006
aa(lp3509
F76.7663061766437
aF16.96389664019263
aa(lp3510
F83.56807511736828
aF10.332118794500834
aaag3505
aF9.323042095504717e-05
aI00
asS'yellowish orange'
p3511
(lp3512
(lp3513
(lp3514
F40.7594356016002
aF5.860426167006787
aa(lp3515
F83.6566656184263
aF11.676278845995842
aa(lp3516
F91.82249742002314
aF5.54242251232121
aaag3511
aF6.237246472344705e-05
aI00
asS'dusk'
p3517
(lp3518
(lp3519
(lp3520
F227.54624577844746
aF81.79684601793817
aa(lp3521
F52.738825171981205
aF24.88405654826365
aa(lp3522
F57.41578682754613
aF21.96414503278761
aaag3517
aF7.68166144488769e-05
aI00
asS'dark mint'
p3523
(lp3524
(lp3525
(lp3526
F137.59232881813017
aF21.551275503201254
aa(lp3527
F64.79720248376609
aF20.49269581951532
aa(lp3528
F74.02791625125172
aF14.345981403121005
aaag3523
aF7.747316670912371e-05
aI00
asS'barney'
p3529
(lp3530
(lp3531
(lp3532
F296.0586254242876
aF23.902586422960614
aa(lp3533
F74.08512497269001
aF17.98790769884962
aa(lp3534
F73.33539731682106
aF16.073421524027562
aaag3529
aF0.0001247449294468941
aI00
asS'lightish red'
p3535
(lp3536
(lp3537
(lp3538
F-11.232913560439572
aF19.29733531634068
aa(lp3539
F65.54589177070443
aF19.7586467938691
aa(lp3540
F88.7407407407411
aF7.061786946204817
aaag3535
aF5.9089703422213004e-05
aI01
asS'medium purple'
p3541
(lp3542
(lp3543
(lp3544
F-74.43839322452015
aF21.248835028119306
aa(lp3545
F63.33637794801328
aF18.93634457194078
aa(lp3546
F72.98916769504933
aF15.53901667878953
aaag3541
aF0.00018777394643058797
aI01
asS'dark aquamarine'
p3547
(lp3548
(lp3549
(lp3550
F176.5299250553923
aF17.89599452483081
aa(lp3551
F72.83622350850324
aF20.070542499008635
aa(lp3552
F54.01644528779034
aF16.93392673548588
aaag3547
aF6.105936020295343e-05
aI00
asS'light green-blue'
p3553
(lp3554
(lp3555
(lp3556
F150.23027865158824
aF19.773120799883777
aa(lp3557
F56.41268253289924
aF23.965216560217762
aa(lp3558
F87.63082302984904
aF9.8324540915825
aaag3553
aF0.00010307870485874935
aI00
asS'soft green'
p3559
(lp3560
(lp3561
(lp3562
F121.96763877069594
aF22.85741244297182
aa(lp3563
F57.51310492588982
aF18.100581616907522
aa(lp3564
F79.87065703474208
aF12.526661293454758
aaag3559
aF0.00018711739417034116
aI00
asS'military green'
p3565
(lp3566
(lp3567
(lp3568
F86.74957710485445
aF24.831005048648034
aa(lp3569
F56.47576927803437
aF21.223472178439575
aa(lp3570
F49.10140743414233
aF14.111594595767924
aaag3565
aF0.00010701801842023021
aI00
asS'heather'
p3571
(lp3572
(lp3573
(lp3574
F-37.78629779373348
aF82.74297690613544
aa(lp3575
F35.664363619147785
aF18.507002061243217
aa(lp3576
F66.97573944832031
aF16.03206859436976
aaag3571
aF7.747316670912371e-05
aI01
asS'mulberry'
p3577
(lp3578
(lp3579
(lp3580
F-32.32493090969896
aF17.270659922249887
aa(lp3581
F73.6828578832156
aF18.04529546104016
aa(lp3582
F59.929843497031634
aF15.09891580627279
aaag3577
aF0.00014312839273380483
aI01
asS'jungle green'
p3583
(lp3584
(lp3585
(lp3586
F130.00832547743354
aF29.010697895095497
aa(lp3587
F77.8382308002392
aF16.151013721452337
aa(lp3588
F58.88949128038454
aF18.465415204845296
aaag3583
aF0.00028494368094711604
aI00
asS'butter'
p3589
(lp3590
(lp3591
(lp3592
F56.12714575714529
aF9.099662337714067
aa(lp3593
F54.89970939140969
aF15.809024916056053
aa(lp3594
F95.32785157073761
aF4.189322627430428
aaag3589
aF6.105936020295343e-05
aI00
asS'medium brown'
p3595
(lp3596
(lp3597
(lp3598
F28.631831772662974
aF12.065537216929368
aa(lp3599
F68.24179042538928
aF18.90385894279573
aa(lp3600
F55.041542040547476
aF13.189344187215692
aaag3595
aF0.00011620975006368557
aI01
asS'blood orange'
p3601
(lp3602
(lp3603
(lp3604
F12.118805188412436
aF7.739700866499539
aa(lp3605
F83.14558718983797
aF11.670464607331336
aa(lp3606
F87.86795730950762
aF8.314301897752529
aaag3601
aF5.186762855949808e-05
aI01
asS'piss yellow'
p3607
(lp3608
(lp3609
(lp3610
F57.857081240059
aF8.32185526265645
aa(lp3611
F77.07438437383655
aF16.685629306927968
aa(lp3612
F85.76757532280732
aF9.374325304040054
aaag3607
aF5.383728534023851e-05
aI01
asS'light olive'
p3613
(lp3614
(lp3615
(lp3616
F78.84021721375527
aF19.948353853096567
aa(lp3617
F55.55015133289204
aF21.578030085417012
aa(lp3618
F75.05176470588303
aF11.676967447981559
aaag3613
aF0.0006565522602468111
aI00
asS'ocean'
p3619
(lp3620
(lp3621
(lp3622
F190.09780326938366
aF27.345223418362064
aa(lp3623
F72.4865074279247
aF21.2873239564718
aa(lp3624
F70.52549019607996
aF17.627653581052613
aaag3619
aF0.00018055187156787306
aI00
asS'sap green'
p3625
(lp3626
(lp3627
(lp3628
F95.09246384913374
aF20.235180971839377
aa(lp3629
F70.5713886706137
aF18.658934984454596
aa(lp3630
F58.72683319903558
aF14.443778435708161
aaag3625
aF4.792831499801721e-05
aI00
asS'medium grey'
p3631
(lp3632
(lp3633
(lp3634
F148.86253018877028
aF94.94715979803672
aa(lp3635
F16.04555788188683
aF9.103893793881776
aa(lp3636
F57.32437857032557
aF13.45931787221005
aaag3631
aF0.00016676427410269003
aI00
asS'mint green'
p3637
(lp3638
(lp3639
(lp3640
F132.60793674872892
aF21.177612146659747
aa(lp3641
F56.115942949986284
aF21.62966445521743
aa(lp3642
F88.33348936391579
aF9.522518079764986
aaag3637
aF0.002475202021130478
aI00
asS'light brown'
p3643
(lp3644
(lp3645
(lp3646
F33.22503360157833
aF12.9192535242738
aa(lp3647
F59.08543212818014
aF20.13673795339043
aa(lp3648
F68.777441344687
aF12.128444857341464
aaag3643
aF0.003941283218261607
aI01
asS'light navy blue'
p3649
(lp3650
(lp3651
(lp3652
F215.91989279300213
aF19.379310224543065
aa(lp3653
F64.76525242580003
aF20.07420001587542
aa(lp3654
F58.95564642968929
aF14.694722280403886
aaag3649
aF0.00012277527266615367
aI00
asS'powder blue'
p3655
(lp3656
(lp3657
(lp3658
F207.4228336287576
aF25.56088465315514
aa(lp3659
F41.32476661679895
aF18.66059606096605
aa(lp3660
F87.24946695095893
aF10.170062676871654
aaag3655
aF0.0006158460201115088
aI00
asS'dirt brown'
p3661
(lp3662
(lp3663
(lp3664
F34.604228034093474
aF12.313671556597312
aa(lp3665
F66.36797205677883
aF19.82250554424117
aa(lp3666
F51.31975867269426
aF14.970541994551912
aaag3661
aF0.00010242215259850254
aI01
asS'dull brown'
p3667
(lp3668
(lp3669
(lp3670
F30.47050645597944
aF17.677213775974863
aa(lp3671
F47.9751465446513
aF14.789286170315345
aa(lp3672
F51.643241367346896
aF12.807727128186233
aaag3667
aF7.419040540788965e-05
aI01
asS'ocean blue'
p3673
(lp3674
(lp3675
(lp3676
F205.66052368852291
aF21.574455620380885
aa(lp3677
F76.70510239373299
aF17.49066578888361
aa(lp3678
F71.64401563094428
aF17.657643775623974
aaag3673
aF0.0007445302631198838
aI00
asS'dusty blue'
p3679
(lp3680
(lp3681
(lp3682
F207.052393103468
aF22.334508376584758
aa(lp3683
F50.66949919144572
aF19.228169422016503
aa(lp3684
F68.77363445378039
aF13.488636996963171
aaag3679
aF0.0002941354125905714
aI00
asS'flesh'
p3685
(lp3686
(lp3687
(lp3688
F21.31986213358466
aF19.63269977502677
aa(lp3689
F40.54913338118913
aF14.855158068413004
aa(lp3690
F90.21029121707956
aF7.5500496094070515
aaag3685
aF0.0008876586558536887
aI01
asS'emerald'
p3691
(lp3692
(lp3693
(lp3694
F136.75683410432126
aF22.191639793270223
aa(lp3695
F77.04061306047834
aF17.22731264958379
aa(lp3696
F66.11490110267333
aF18.151023383583297
aaag3691
aF0.0003000443829327927
aI00
asS'bright light green'
p3697
(lp3698
(lp3699
(lp3700
F120.57954137379643
aF23.351487658356085
aa(lp3701
F80.69388691735269
aF14.064754406646781
aa(lp3702
F92.5560224089678
aF6.736530888949435
aaag3697
aF7.353385314764285e-05
aI01
asS'olive brown'
p3703
(lp3704
(lp3705
(lp3706
F49.52762546515758
aF11.784911832531133
aa(lp3707
F68.67366622381537
aF19.9020442982578
aa(lp3708
F50.04817927170913
aF13.825012807831117
aaag3703
aF0.00011489664554319195
aI00
asS'light turquoise'
p3709
(lp3710
(lp3711
(lp3712
F166.29509566052582
aF16.91547765694252
aa(lp3713
F58.564789106290355
aF21.366878188155393
aa(lp3714
F88.5329131652674
aF9.318867575501493
aaag3709
aF0.0005147369720334999
aI00
asS'dark olive green'
p3715
(lp3716
(lp3717
(lp3718
F83.1874464609692
aF23.623890725174157
aa(lp3719
F67.80953798409968
aF20.41541331497667
aa(lp3720
F37.01730855208707
aF12.50477825728238
aaag3715
aF0.000201561543895771
aI00
asS'pale pink'
p3721
(lp3722
(lp3723
(lp3724
F-17.783015178346314
aF31.626912096641934
aa(lp3725
F28.36252257465691
aF13.838289716503233
aa(lp3726
F91.99538638985074
aF6.926598963177669
aaag3721
aF0.0011273002308437748
aI01
asS'dark forest green'
p3727
(lp3728
(lp3729
(lp3730
F120.96307772857124
aF33.019780261990206
aa(lp3731
F69.33275764149904
aF21.470960725827
aa(lp3732
F27.44555261550995
aF10.89158803086476
aaag3727
aF0.0001897436032113284
aI00
asS'reddish brown'
p3733
(lp3734
(lp3735
(lp3736
F8.336557192172284
aF11.949537136978005
aa(lp3737
F73.17131622564595
aF17.57742201934885
aa(lp3738
F56.841085271319315
aF14.97843570002695
aaag3733
aF0.0009034159100996121
aI01
asS'parchment'
p3739
(lp3740
(lp3741
(lp3742
F54.52542520866
aF15.21622794321797
aa(lp3743
F34.326575663301874
aF12.956102256606112
aa(lp3744
F91.13725490195863
aF7.7115763360105145
aaag3739
aF4.924141951851084e-05
aI01
asS'apple'
p3745
(lp3746
(lp3747
(lp3748
F82.85738340572617
aF51.14276851627998
aa(lp3749
F72.07213123894891
aF20.856937703879268
aa(lp3750
F80.75526506899442
aF13.432573530440735
aaag3745
aF7.09076441066556e-05
aI01
asS'green-blue'
p3751
(lp3752
(lp3753
(lp3754
F160.32308575725745
aF17.638422116672793
aa(lp3755
F71.52698389799549
aF19.641440486474334
aa(lp3756
F69.25222707840688
aF17.467893466790663
aaag3751
aF0.001078058811325264
aI00
asS'sunflower'
p3757
(lp3758
(lp3759
(lp3760
F52.287033186291005
aF18.872170706348502
aa(lp3761
F78.81924468152108
aF13.772092748369422
aa(lp3762
F93.4158926728642
aF5.848514916673046
aaag3757
aF6.237246472344705e-05
aI00
asS'light yellow'
p3763
(lp3764
(lp3765
(lp3766
F61.37977929883727
aF9.021865956071164
aa(lp3767
F51.7331801192293
aF14.372603575699657
aa(lp3768
F95.3788235294138
aF3.9935273702511362
aaag3763
aF0.0007386212927776625
aI01
asS'cherry'
p3769
(lp3770
(lp3771
(lp3772
F-9.921800642324271
aF10.690202698419698
aa(lp3773
F86.68456000024216
aF10.2454701510934
aa(lp3774
F78.79111975369007
aF15.861890607961058
aaag3769
aF7.944282348986415e-05
aI01
asS'very light pink'
p3775
(lp3776
(lp3777
(lp3778
F-15.000952938864723
aF39.88959015883979
aa(lp3779
F16.165918647487064
aF8.4125900379732
aa(lp3780
F95.65279770445001
aF4.4028875967576155
aaag3775
aF5.383728534023851e-05
aI01
asS'sky'
p3781
(lp3782
(lp3783
(lp3784
F197.58809608047338
aF27.34669316349987
aa(lp3785
F56.83141520633504
aF22.975694229078904
aa(lp3786
F88.43813387424112
aF9.191451819922252
aaag3781
aF0.00034272027984883543
aI00
asS'pale turquoise'
p3787
(lp3788
(lp3789
(lp3790
F160.39880057507827
aF21.514782985321418
aa(lp3791
F44.6947567771368
aF19.592265325629377
aa(lp3792
F88.08184143222702
aF9.309591295064001
aaag3787
aF0.0001359063178710899
aI00
asS'neon purple'
p3793
(lp3794
(lp3795
(lp3796
F288.9191617091936
aF14.837040262243391
aa(lp3797
F81.70387669792788
aF12.861893855969493
aa(lp3798
F86.94208081555536
aF10.015374578436123
aaag3793
aF0.0006263508562754578
aI00
asS'light violet'
p3799
(lp3800
(lp3801
(lp3802
F-78.9332219848876
aF26.973557227798832
aa(lp3803
F47.64817537147026
aF22.524442399414056
aa(lp3804
F84.87011509940416
aF11.3537697826254
aaag3799
aF0.0005659480483327511
aI01
asS'chartreuse'
p3805
(lp3806
(lp3807
(lp3808
F76.58163128134177
aF33.18295979014111
aa(lp3809
F77.71761582789003
aF16.88481092880443
aa(lp3810
F85.47397821851405
aF11.507675763477954
aaag3805
aF0.002286114970179396
aI01
asS'true green'
p3811
(lp3812
(lp3813
(lp3814
F121.58220498353205
aF15.34651843278338
aa(lp3815
F85.06555780335891
aF11.928293513064892
aa(lp3816
F65.75599128540111
aF15.351640640610317
aaag3811
aF5.9089703422213004e-05
aI00
asS'dark sea green'
p3817
(lp3818
(lp3819
(lp3820
F152.45163481477047
aF18.867313690524142
aa(lp3821
F69.96022099168854
aF19.84595252854514
aa(lp3822
F60.90663788450781
aF18.089178738043035
aaag3817
aF0.00014312839273380483
aI00
asS'periwinkle'
p3823
(lp3824
(lp3825
(lp3826
F240.4687530457256
aF27.23135678468028
aa(lp3827
F46.962896703623734
aF18.809436528625962
aa(lp3828
F85.14043877036141
aF11.276205892075804
aaag3823
aF0.004949090937740462
aI00
asS'hospital green'
p3829
(lp3830
(lp3831
(lp3832
F133.40055545809872
aF27.201631607364735
aa(lp3833
F52.89889907365715
aF22.447138801274562
aa(lp3834
F81.77103099304136
aF12.14429911719051
aaag3829
aF0.00014247184047355802
aI00
asS'leaf green'
p3835
(lp3836
(lp3837
(lp3838
F106.85233866186316
aF21.77798311124339
aa(lp3839
F74.94557294000784
aF17.19358399519392
aa(lp3840
F71.0253937640632
aF14.378975584672423
aaag3835
aF0.0009611925090013315
aI00
asS'denim'
p3841
(lp3842
(lp3843
(lp3844
F214.186840111656
aF18.969456185565612
aa(lp3845
F61.79856047491316
aF19.406667426960475
aa(lp3846
F60.185711066036504
aF15.780676564327468
aaag3841
aF0.0002856002332073628
aI00
asS'shocking pink'
p3847
(lp3848
(lp3849
(lp3850
F-36.755961023252326
aF14.06217287021583
aa(lp3851
F84.04090454858526
aF10.935827827575075
aa(lp3852
F91.73956762192498
aF7.6282373327808655
aaag3847
aF0.00010242215259850254
aI01
asS'salmon pink'
p3853
(lp3854
(lp3855
(lp3856
F-0.28129450414807927
aF14.011822063386482
aa(lp3857
F53.14821427377774
aF14.641643358675793
aa(lp3858
F91.19387788616508
aF6.864937292365014
aaag3853
aF0.00039196169936734623
aI01
asS'turquoise'
p3859
(lp3860
(lp3861
(lp3862
F172.73669454164235
aF15.994992311881397
aa(lp3863
F74.25221667752237
aF18.08954270238226
aa(lp3864
F79.10840308550829
aF15.424430882579541
aaag3859
aF0.010667661124490187
aI00
asS'aubergine'
p3865
(lp3866
(lp3867
(lp3868
F-49.72710510000369
aF29.771905083365084
aa(lp3869
F63.640728917428895
aF22.088498385526073
aa(lp3870
F43.50684158555444
aF15.929934104853592
aaag3865
aF0.00027378229252292025
aI01
asS'shit green'
p3871
(lp3872
(lp3873
(lp3874
F72.32006945821556
aF19.078085143767634
aa(lp3875
F73.34136513747882
aF18.395923159316325
aa(lp3876
F57.95155709342705
aF17.009939527458577
aaag3871
aF5.580694212097895e-05
aI00
asS'light red'
p3877
(lp3878
(lp3879
(lp3880
F-3.9622670020147615
aF11.142750325210665
aa(lp3881
F68.88748993309969
aF16.27281195482951
aa(lp3882
F87.80895207126082
aF8.94666044672434
aaag3877
aF0.0009263952392082505
aI01
asS'ultramarine'
p3883
(lp3884
(lp3885
(lp3886
F230.82499337091753
aF25.18589230978469
aa(lp3887
F83.14478399195026
aF14.054587853417337
aa(lp3888
F74.37441643323993
aF17.472316088811045
aaag3883
aF0.00022060155944292854
aI00
asS'dull pink'
p3889
(lp3890
(lp3891
(lp3892
F-16.365419741757755
aF21.70269431692609
aa(lp3893
F43.04435635236319
aF16.839695877673332
aa(lp3894
F83.44872462259418
aF9.417183229767138
aaag3889
aF0.0002967616216315586
aI01
asS'pale blue'
p3895
(lp3896
(lp3897
(lp3898
F197.28003865590256
aF30.80022570960064
aa(lp3899
F36.91692471546127
aF19.377453933102522
aa(lp3900
F87.86136053590795
aF10.142931631942325
aaag3895
aF0.0025290393064707163
aI00
asS'reddish orange'
p3901
(lp3902
(lp3903
(lp3904
F12.089410519739895
aF8.527653710260449
aa(lp3905
F83.88127657225841
aF11.015072549367904
aa(lp3906
F87.38067338489317
aF8.978072929345135
aaag3901
aF0.0003295892346438992
aI01
asS'pale magenta'
p3907
(lp3908
(lp3909
(lp3910
F-41.52651601012724
aF22.081593870940928
aa(lp3911
F53.26854419182276
aF16.0686982441023
aa(lp3912
F85.97170513775572
aF9.601575167011644
aaag3907
aF5.186762855949808e-05
aI01
asS'dark mauve'
p3913
(lp3914
(lp3915
(lp3916
F-31.62262795693146
aF31.516535270700178
aa(lp3917
F53.26840548124023
aF19.48201991069056
aa(lp3918
F55.79161687248148
aF15.806174723043295
aaag3913
aF0.0002908526512893373
aI01
asS'olive green'
p3919
(lp3920
(lp3921
(lp3922
F78.53010950022791
aF19.340761400238343
aa(lp3923
F68.21032433364921
aF20.364778591374378
aa(lp3924
F57.07277997538991
aF15.44041113892269
aaag3919
aF0.004676621749738035
aI00
asS'cool green'
p3925
(lp3926
(lp3927
(lp3928
F138.20120457410968
aF21.947314746335824
aa(lp3929
F70.1949520563
aF18.923088692409607
aa(lp3930
F74.2834040832835
aF15.660969588343765
aaag3925
aF6.368556924394068e-05
aI00
asS'aqua blue'
p3931
(lp3932
(lp3933
(lp3934
F183.83156750663815
aF16.286261258824396
aa(lp3935
F74.47539684240672
aF18.199904657096067
aa(lp3936
F82.93820967176447
aF13.568131585778856
aaag3931
aF0.0004773134931994317
aI00
asS'light greenish blue'
p3937
(lp3938
(lp3939
(lp3940
F158.9162719340133
aF19.53995016278133
aa(lp3941
F51.964009576812344
aF22.712755521047143
aa(lp3942
F86.33744855966916
aF9.74817494595376
aaag3937
aF5.31807330799917e-05
aI00
asS'faded yellow'
p3943
(lp3944
(lp3945
(lp3946
F61.29631225102839
aF8.375039697815847
aa(lp3947
F57.03380038212259
aF15.678503384610176
aa(lp3948
F93.21104786000429
aF5.567058868270652
aaag3943
aF6.105936020295343e-05
aI01
asS'nude'
p3949
(lp3950
(lp3951
(lp3952
F26.818450522865323
aF15.21093026030012
aa(lp3953
F36.76945998844895
aF13.773690322950388
aa(lp3954
F89.3327886710243
aF7.809237723153634
aaag3949
aF9.45435254755408e-05
aI01
asS'fern green'
p3955
(lp3956
(lp3957
(lp3958
F106.89650617088724
aF26.929411735320695
aa(lp3959
F64.92721835978583
aF21.158809297079433
aa(lp3960
F61.037829273118184
aF14.324892545399663
aaag3955
aF6.49986737644343e-05
aI00
asS'light beige'
p3961
(lp3962
(lp3963
(lp3964
F53.834480285287256
aF16.398065225326853
aa(lp3965
F30.23009879084805
aF14.12119779805811
aa(lp3966
F89.99826479264246
aF7.3933355395645535
aaag3961
aF7.419040540788965e-05
aI00
asS'banana yellow'
p3967
(lp3968
(lp3969
(lp3970
F59.60821540881525
aF7.252832055825699
aa(lp3971
F72.73333004738662
aF17.05919516592385
aa(lp3972
F94.75641803112786
aF4.7395599687724825
aaag3967
aF6.368556924394068e-05
aI00
asS'bright blue'
p3973
(lp3974
(lp3975
(lp3976
F215.7877914709634
aF24.3731199988006
aa(lp3977
F85.64144167778221
aF11.86257731360332
aa(lp3978
F89.41614725360405
aF8.856963514704667
aaag3973
aF0.0031724605215125916
aI00
asS'dark lime green'
p3979
(lp3980
(lp3981
(lp3982
F95.63974480497998
aF19.0253351231
aa(lp3983
F82.27058864886114
aF13.30038156988496
aa(lp3984
F76.05418894830622
aF12.042541049129225
aaag3979
aF0.00018055187156787306
aI00
asS'clay'
p3985
(lp3986
(lp3987
(lp3988
F21.399170073695608
aF27.192614116034992
aa(lp3989
F56.4789637403774
aF22.02604426219132
aa(lp3990
F69.6397058823523
aF13.227289170249998
aaag3985
aF0.00031514508491846936
aI01
asS'muddy brown'
p3991
(lp3992
(lp3993
(lp3994
F34.01153485748391
aF23.502655833762393
aa(lp3995
F65.32703702515337
aF21.999359408592486
aa(lp3996
F52.578929877036444
aF14.352588566897609
aaag3991
aF7.747316670912371e-05
aI01
asS'teal blue'
p3997
(lp3998
(lp3999
(lp4000
F185.77990111403304
aF14.997613806037942
aa(lp4001
F75.08193100701308
aF17.763554866813408
aa(lp4002
F68.5721468074394
aF16.76729734662044
aaag3997
aF0.00020484430519700507
aI00
asS'rosy pink'
p4003
(lp4004
(lp4005
(lp4006
F-20.478753168014517
aF17.966118253966176
aa(lp4007
F54.25575939563924
aF15.33786804162937
aa(lp4008
F87.52544055597346
aF9.679946031485331
aaag4003
aF5.186762855949808e-05
aI01
asS'burnt orange'
p4009
(lp4010
(lp4011
(lp4012
F23.81548694072092
aF9.290435768973241
aa(lp4013
F85.06677518638287
aF10.77583943028186
aa(lp4014
F79.14525376937834
aF9.891407343659752
aaag4009
aF0.002909839617413867
aI01
asS'wintergreen'
p4015
(lp4016
(lp4017
(lp4018
F139.72991104817143
aF22.383464707815264
aa(lp4019
F63.08383389999045
aF23.38897778620654
aa(lp4020
F79.46311858076427
aF17.513215828750774
aaag4015
aF5.5150389860732136e-05
aI00
asS'dark indigo'
p4021
(lp4022
(lp4023
(lp4024
F255.27432929181572
aF21.87626428120153
aa(lp4025
F68.81730947189467
aF19.26718322273298
aa(lp4026
F44.587445716541595
aF18.10168467511561
aaag4021
aF9.782628677677486e-05
aI00
asS'eggshell blue'
p4027
(lp4028
(lp4029
(lp4030
F179.4647009583354
aF29.872675797397324
aa(lp4031
F36.530629725630455
aF22.552566801758275
aa(lp4032
F88.42436974789908
aF9.823227789481415
aaag4027
aF7.353385314764285e-05
aI00
asS'mauve'
p4033
(lp4034
(lp4035
(lp4036
F-35.98384596226653
aF37.96674150627065
aa(lp4037
F49.33039462327984
aF21.745500142788565
aa(lp4038
F69.5078659679422
aF16.461187664537594
aaag4033
aF0.007273942491274421
aI01
asS'pinkish orange'
p4039
(lp4040
(lp4041
(lp4042
F12.835632134342156
aF11.143377468418397
aa(lp4043
F65.03668356198132
aF11.102368805831244
aa(lp4044
F92.15319772769067
aF6.6927011251428095
aaag4039
aF7.025109184640879e-05
aI01
asS'very pale blue'
p4045
(lp4046
(lp4047
(lp4048
F174.74629489574215
aF45.87335845348406
aa(lp4049
F18.382370202159475
aF10.783410366745143
aa(lp4050
F92.28070175438023
aF9.769850089205523
aaag4045
aF4.989797177875764e-05
aI00
asS'dark brown'
p4051
(lp4052
(lp4053
(lp4054
F17.802150080354334
aF27.667982930244957
aa(lp4055
F67.07630845230443
aF22.00794399203638
aa(lp4056
F27.921321079720194
aF10.887505719801622
aaag4051
aF0.0012481058467291879
aI01
asS'ultramarine blue'
p4057
(lp4058
(lp4059
(lp4060
F233.86286708824755
aF18.815094121723032
aa(lp4061
F83.3022724942632
aF14.464327120211951
aa(lp4062
F75.04624491305565
aF18.9654537937124
aaag4057
aF6.959453958616198e-05
aI00
asS'butterscotch'
p4063
(lp4064
(lp4065
(lp4066
F39.60134847027984
aF7.361637145815599
aa(lp4067
F74.53424747225468
aF16.712982716930362
aa(lp4068
F87.96339869281067
aF7.46046134560523
aaag4063
aF4.924141951851084e-05
aI01
asS'orchid'
p4069
(lp4070
(lp4071
(lp4072
F-61.60421733285825
aF23.886932750680064
aa(lp4073
F55.16190290131037
aF20.789692538402967
aa(lp4074
F79.81951871657694
aF14.278802095762094
aaag4069
aF0.00046221279121375503
aI01
asS'gross'
p4075
(lp4076
(lp4077
(lp4078
F55.57887256399303
aF53.52695930384577
aa(lp4079
F66.29737521725009
aF23.078902815840973
aa(lp4080
F71.22864832207114
aF17.28292698046028
aaag4075
aF0.00023438915690811158
aI01
asS'light seafoam'
p4081
(lp4082
(lp4083
(lp4084
F140.91898906806728
aF21.335149580655617
aa(lp4085
F46.167440766425266
aF20.390533988866107
aa(lp4086
F91.01486748545712
aF8.18282881454522
aaag4081
aF5.974625568245981e-05
aI00
asS'leaf'
p4087
(lp4088
(lp4089
(lp4090
F103.41712207306688
aF25.05070058584055
aa(lp4091
F69.31969427616224
aF19.326400837495974
aa(lp4092
F72.83713485394286
aF14.887479644928868
aaag4087
aF6.434212150418749e-05
aI00
asS'purple'
p4093
(lp4094
(lp4095
(lp4096
F-73.65905330307584
aF22.917961419333817
aa(lp4097
F70.5627690159446
aF19.774586332091275
aa(lp4098
F70.66978778533891
aF17.786539093996012
aaag4093
aF0.08539709593804248
aI01
asS'bluey purple'
p4099
(lp4100
(lp4101
(lp4102
F253.76490379902694
aF12.918286323245992
aa(lp4103
F68.78322849631297
aF18.293103160314022
aa(lp4104
F76.49159663865534
aF15.995407982441819
aaag4099
aF0.0001470677062952857
aI00
asS'ugly pink'
p4105
(lp4106
(lp4107
(lp4108
F-25.020497842203152
aF25.539283813397176
aa(lp4109
F52.96043491151539
aF20.332242215741818
aa(lp4110
F84.08915703033506
aF10.72855353066914
aaag4105
aF7.68166144488769e-05
aI01
asS'indigo'
p4111
(lp4112
(lp4113
(lp4114
F255.45764320955286
aF22.438139389755964
aa(lp4115
F73.3892372682316
aF18.270502233971243
aa(lp4116
F67.02866746698744
aF20.37390926795747
aaag4111
aF0.004021382594011718
aI00
asS'blue violet'
p4117
(lp4118
(lp4119
(lp4120
F257.1288870091039
aF14.544117019888422
aa(lp4121
F73.81242817692818
aF16.990336134314436
aa(lp4122
F75.91581585430156
aF16.32995290082399
aaag4117
aF0.000904072462359859
aI00
asS'dark grey blue'
p4123
(lp4124
(lp4125
(lp4126
F213.89161891532396
aF22.318914354959244
aa(lp4127
F53.788332772803976
aF18.649553922261497
aa(lp4128
F44.611764705881015
aF12.567525570378129
aaag4123
aF6.565522602468112e-05
aI00
asS'mid blue'
p4129
(lp4130
(lp4131
(lp4132
F217.7329640526388
aF17.918898077201014
aa(lp4133
F74.96348893527315
aF15.72014469525184
aa(lp4134
F78.1796897863612
aF13.265367840952916
aaag4129
aF0.00017595600574614537
aI00
asS'dusty red'
p4135
(lp4136
(lp4137
(lp4138
F-0.058003924416064494
aF10.554907318244663
aa(lp4139
F65.47341508587691
aF12.975145149974313
aa(lp4140
F73.30693815987692
aF9.651494465052107
aaag4135
aF6.828143506566835e-05
aI01
asS'dusty green'
p4141
(lp4142
(lp4143
(lp4144
F118.55432814762156
aF27.59079246825981
aa(lp4145
F46.06054320642808
aF17.106622924692577
aa(lp4146
F64.82179078528273
aF12.928094040685647
aaag4141
aF0.00013328010883010267
aI00
asS'khaki'
p4147
(lp4148
(lp4149
(lp4150
F59.62810256596841
aF17.867715101278314
aa(lp4151
F51.93020578871397
aF21.427257995309542
aa(lp4152
F67.17461787864823
aF16.22171783450733
aaag4147
aF0.0016676427410269002
aI00
asS'wheat'
p4153
(lp4154
(lp4155
(lp4156
F51.38829283269207
aF11.924647975510121
aa(lp4157
F57.41051771703664
aF18.99543685892558
aa(lp4158
F84.87087517933963
aF11.230914801494416
aaag4153
aF0.00010767457068047702
aI00
asS'greyish purple'
p4159
(lp4160
(lp4161
(lp4162
F-62.860529998420546
aF42.8136888934865
aa(lp4163
F29.215760588173648
aF13.402238812299885
aa(lp4164
F59.01466091023493
aF14.19955763712069
aaag4159
aF0.0005725135709352193
aI01
asS'icky green'
p4165
(lp4166
(lp4167
(lp4168
F92.84536777639048
aF33.34749052627229
aa(lp4169
F70.92131839504374
aF19.769936273439402
aa(lp4170
F69.72549019608127
aF17.838547136381113
aaag4165
aF5.252418081974489e-05
aI00
asS'bright lavender'
p4171
(lp4172
(lp4173
(lp4174
F-76.32771905538453
aF17.060580354401317
aa(lp4175
F61.55571310413352
aF16.649445349649493
aa(lp4176
F90.22593809097815
aF8.267690116711053
aaag4171
aF0.0001293407952686218
aI01
asS'tomato red'
p4177
(lp4178
(lp4179
(lp4180
F5.414968349276135
aF8.200278987379685
aa(lp4181
F85.55697204595715
aF9.907463270242813
aa(lp4182
F84.56022408963618
aF9.697990871658678
aaag4177
aF6.893798732591517e-05
aI01
asS'dark purple'
p4183
(lp4184
(lp4185
(lp4186
F-69.21680613788875
aF27.141273121260692
aa(lp4187
F69.29737788707713
aF20.687197684525902
aa(lp4188
F42.07253397292931
aF15.612209807303588
aaag4183
aF0.005732357784214908
aI01
asS'dull teal'
p4189
(lp4190
(lp4191
(lp4192
F167.77231011427543
aF19.656853108734566
aa(lp4193
F47.145518822111576
aF18.68292652649064
aa(lp4194
F62.92134831460564
aF13.397202139166467
aaag4189
aF5.843315116196619e-05
aI00
asS'raspberry'
p4195
(lp4196
(lp4197
(lp4198
F-22.960289537965465
aF14.384716678583787
aa(lp4199
F78.73768087657675
aF15.409489749621404
aa(lp4200
F71.76824413976173
aF13.281458921870822
aaag4195
aF0.0004366072530641294
aI01
asS'ochre'
p4201
(lp4202
(lp4203
(lp4204
F36.886632323321564
aF22.574346522210806
aa(lp4205
F77.60104193740482
aF17.084238677247004
aa(lp4206
F74.03191345503707
aF13.99347274744486
aaag4201
aF0.0009520007773578761
aI01
asS'iris'
p4207
(lp4208
(lp4209
(lp4210
F-98.31711362102861
aF21.72829403549406
aa(lp4211
F56.96002499240711
aF19.936055104517628
aa(lp4212
F77.77777777777857
aF14.196532381023378
aaag4207
aF8.27255847910982e-05
aI01
asS'stone'
p4213
(lp4214
(lp4215
(lp4216
F28.74096850003858
aF78.58327198248104
aa(lp4217
F27.281295928172824
aF15.417991548282604
aa(lp4218
F67.50897542115354
aF16.763802077615285
aaag4213
aF9.323042095504717e-05
aI01
asS'turquoise blue'
p4219
(lp4220
(lp4221
(lp4222
F185.38941775318384
aF12.722040013750181
aa(lp4223
F77.87244975278132
aF16.026044643329765
aa(lp4224
F77.5035014005589
aF15.592594526013208
aaag4219
aF7.353385314764285e-05
aI00
asS'army green'
p4225
(lp4226
(lp4227
(lp4228
F83.55538416969344
aF23.41526001036699
aa(lp4229
F63.395310197788085
aF21.320517153839244
aa(lp4230
F48.68814682221326
aF14.415305992634243
aaag4225
aF0.001251388608030422
aI00
asS'purplish grey'
p4231
(lp4232
(lp4233
(lp4234
F-58.75578487921252
aF50.36807485990179
aa(lp4235
F22.038885398025
aF10.36230000618364
aa(lp4236
F59.13092614567435
aF16.781175321983373
aaag4231
aF0.00022782363430564345
aI01
asS'light grey'
p4237
(lp4238
(lp4239
(lp4240
F147.30226412007192
aF90.43100997482654
aa(lp4241
F12.166579320802528
aF8.111167086821546
aa(lp4242
F82.32265182287739
aF11.140060491905118
aaag4237
aF0.0012835596687825158
aI00
asS'plum'
p4243
(lp4244
(lp4245
(lp4246
F-47.09526679210269
aF26.20253952457305
aa(lp4247
F66.11388197491716
aF20.94801412199163
aa(lp4248
F48.33174657146126
aF16.20239226780698
aaag4243
aF0.0022716708204539664
aI01
asS'bright red'
p4249
(lp4250
(lp4251
(lp4252
F-3.2537039115167516
aF8.662977827374107
aa(lp4253
F90.93180595670393
aF7.3533993015475145
aa(lp4254
F92.5017507002796
aF6.612704115990149
aaag4249
aF0.0005882708251811428
aI01
asS'bluish purple'
p4255
(lp4256
(lp4257
(lp4258
F256.42209292100233
aF14.753475278540742
aa(lp4259
F70.974491812187
aF18.48206551889852
aa(lp4260
F77.00616714815548
aF15.936083245839399
aaag4255
aF0.0012566410261123965
aI00
asS'vivid blue'
p4261
(lp4262
(lp4263
(lp4264
F228.28004702305154
aF16.803094090018128
aa(lp4265
F89.68997931045482
aF8.071726337462925
aa(lp4266
F89.78243352135476
aF9.267606337112385
aaag4261
aF4.792831499801721e-05
aI00
asS'pistachio'
p4267
(lp4268
(lp4269
(lp4270
F106.82142864081428
aF27.694379905959437
aa(lp4271
F51.9171348928133
aF20.240993736040725
aa(lp4272
F87.83724015922397
aF9.538192688344282
aaag4267
aF0.00017464290122565175
aI00
asS'baby poop'
p4273
(lp4274
(lp4275
(lp4276
F55.246516842357735
aF16.412075704164337
aa(lp4277
F77.26490383580038
aF16.666784639710716
aa(lp4278
F67.16296477097262
aF14.277451976922256
aaag4273
aF0.0001582290947194815
aI00
asS'beige'
p4279
(lp4280
(lp4281
(lp4282
F45.29798095305091
aF19.55138545545701
aa(lp4283
F38.29153289290016
aF16.11680031406509
aa(lp4284
F83.93540045322543
aF10.94608906507642
aaag4279
aF0.004709449362750376
aI01
asS'cranberry'
p4285
(lp4286
(lp4287
(lp4288
F-13.81798550777193
aF11.329770201487138
aa(lp4289
F81.3040590925975
aF13.301280645748891
aa(lp4290
F62.86936173646417
aF13.03807294221373
aaag4285
aF0.00015954219923997512
aI01
asS'azure'
p4291
(lp4292
(lp4293
(lp4294
F206.98414734461693
aF24.57325591421409
aa(lp4295
F74.34806872582357
aF18.401118118916575
aa(lp4296
F83.35872972292645
aF13.418139889321086
aaag4291
aF0.0005626652870315171
aI00
asS'seaweed green'
p4297
(lp4298
(lp4299
(lp4300
F123.37189123131087
aF32.821296592447
aa(lp4301
F62.54015932488096
aF21.29393939926684
aa(lp4302
F66.08403361344085
aF20.32453877904085
aaag4297
aF6.893798732591517e-05
aI01
asS'hot magenta'
p4303
(lp4304
(lp4305
(lp4306
F-39.947789539738956
aF14.735045409747409
aa(lp4307
F86.2813488445375
aF10.932333688776026
aa(lp4308
F89.72338935574463
aF7.797158364783215
aaag4303
aF7.353385314764285e-05
aI01
asS'brownish pink'
p4309
(lp4310
(lp4311
(lp4312
F6.236632710812329
aF14.405644581331382
aa(lp4313
F40.869847694609106
aF12.992058244251169
aa(lp4314
F75.16934046346135
aF10.47932791245511
aaag4309
aF5.777659890171938e-05
aI01
asS'muted green'
p4315
(lp4316
(lp4317
(lp4318
F115.74174268524065
aF26.151842488455696
aa(lp4319
F52.32139580110572
aF18.092499202378125
aa(lp4320
F66.97464326045132
aF13.092082385357521
aaag4315
aF0.00012540148170714092
aI00
asS'amber'
p4321
(lp4322
(lp4323
(lp4324
F35.98190937580262
aF15.456363334078134
aa(lp4325
F83.61129844161083
aF13.361796332223419
aa(lp4326
F83.09304113802256
aF13.515402284365628
aaag4321
aF0.00013393666109034948
aI01
asS'lemon yellow'
p4327
(lp4328
(lp4329
(lp4330
F63.41193385764622
aF8.231633248162213
aa(lp4331
F74.02988901528722
aF16.63541176757642
aa(lp4332
F95.36996691680694
aF4.090596709090248
aaag4327
aF0.00015954219923997512
aI00
asS'moss'
p4333
(lp4334
(lp4335
(lp4336
F97.7201018855699
aF30.72852048764971
aa(lp4337
F56.617033682543266
aF22.844725778121376
aa(lp4338
F61.59630296859047
aF16.825509376195782
aaag4333
aF0.0004930707474453551
aI00
asS'dark orange'
p4339
(lp4340
(lp4341
(lp4342
F22.983940683934627
aF10.1923388295481
aa(lp4343
F86.44996931148496
aF9.908560089001007
aa(lp4344
F79.86089266366055
aF9.640733969021841
aaag4339
aF0.0011049774539953832
aI01
asS'greeny grey'
p4345
(lp4346
(lp4347
(lp4348
F108.05116935561776
aF35.948674020561576
aa(lp4349
F30.085321102496923
aF11.69288148864471
aa(lp4350
F63.31638828371112
aF14.521516713273497
aaag4345
aF5.31807330799917e-05
aI00
asS'dark salmon'
p4351
(lp4352
(lp4353
(lp4354
F1.459962352288195
aF14.079715423818733
aa(lp4355
F62.2966605724285
aF13.814510819535203
aa(lp4356
F81.46313496158695
aF10.514933494154477
aaag4351
aF0.0003368113095066141
aI01
asS'mocha'
p4357
(lp4358
(lp4359
(lp4360
F25.37194698093913
aF20.941387120273536
aa(lp4361
F51.851304083778025
aF18.881760069824036
aa(lp4362
F58.43495389022924
aF15.693658879113057
aaag4357
aF0.00014378494499405164
aI01
asS'cocoa'
p4363
(lp4364
(lp4365
(lp4366
F20.250943994430248
aF21.504053210517824
aa(lp4367
F51.29850165924168
aF18.267087483075933
aa(lp4368
F50.81699346405001
aF16.103220966321096
aaag4363
aF4.72717627377704e-05
aI01
asS'dusky purple'
p4369
(lp4370
(lp4371
(lp4372
F-60.76177938391091
aF34.11605253626447
aa(lp4373
F40.79794971243579
aF15.126803804793333
aa(lp4374
F57.67368675865057
aF14.71781177036542
aaag4369
aF0.0001063614661599834
aI01
asS'muave'
p4375
(lp4376
(lp4377
(lp4378
F-28.39616009588722
aF41.61335605046632
aa(lp4379
F54.75915970603669
aF24.2523880041717
aa(lp4380
F67.23389355742394
aF18.12107229358086
aaag4375
aF0.00018383463286910712
aI01
asS'kelly green'
p4381
(lp4382
(lp4383
(lp4384
F125.21403343627925
aF18.74703034795912
aa(lp4385
F82.10795288382342
aF13.628193101303795
aa(lp4386
F69.54423526967818
aF15.408871643041929
aaag4381
aF0.002106876203132017
aI00
asS'sandy brown'
p4387
(lp4388
(lp4389
(lp4390
F41.573550205799
aF9.760388741716856
aa(lp4391
F55.29993761266525
aF18.412836602494128
aa(lp4392
F74.69371196754139
aF11.596823815271938
aaag4387
aF9.520007773578761e-05
aI00
asS'electric green'
p4393
(lp4394
(lp4395
(lp4396
F113.43841309269428
aF23.1497878174814
aa(lp4397
F85.90521599498683
aF10.633529989517118
aa(lp4398
F91.98181018043215
aF6.636399442894923
aaag4393
aF0.00026327745635897125
aI00
asS'purplish'
p4399
(lp4400
(lp4401
(lp4402
F-66.72257235326818
aF34.081851098791866
aa(lp4403
F61.4599162032106
aF21.619519893330395
aa(lp4404
F71.17345399698515
aF16.90221247910586
aaag4399
aF0.00038408307224438454
aI01
asS'blue-purple'
p4405
(lp4406
(lp4407
(lp4408
F254.45454570024327
aF14.179055404250335
aa(lp4409
F71.42822005304892
aF18.434176006574752
aa(lp4410
F77.36086843978585
aF15.59842011195252
aaag4405
aF0.00159148267883827
aI00
asS'maize'
p4411
(lp4412
(lp4413
(lp4414
F49.84059971321269
aF14.792256652133585
aa(lp4415
F71.91212348615394
aF16.957088953545163
aa(lp4416
F85.65327120947379
aF11.091427301292848
aaag4411
aF0.00013262355656985586
aI01
asS'pinkish red'
p4417
(lp4418
(lp4419
(lp4420
F-12.636320164889979
aF10.233354560577958
aa(lp4421
F78.61801432324583
aF14.78561909451408
aa(lp4422
F85.18697774468373
aF10.293826022664286
aaag4417
aF0.000622411542713977
aI01
asS'orangish brown'
p4423
(lp4424
(lp4425
(lp4426
F27.731807868040686
aF10.629600584307163
aa(lp4427
F81.00867584816348
aF12.374175901904183
aa(lp4428
F72.21124946328833
aF9.809837342906725
aaag4423
aF8.994765965381312e-05
aI01
asS'deep blue'
p4429
(lp4430
(lp4431
(lp4432
F234.32726861039657
aF18.750290830890652
aa(lp4433
F83.41071622785671
aF13.270619686938685
aa(lp4434
F60.70741055693172
aF18.933721336824735
aaag4429
aF0.0010445746460526766
aI00
asS'turquoise green'
p4435
(lp4436
(lp4437
(lp4438
F155.41157592195847
aF14.9796994442995
aa(lp4439
F73.12651250175229
aF20.040368331439193
aa(lp4440
F80.10793308148622
aF14.61283717641556
aaag4435
aF7.156419636690242e-05
aI00
asS'light pink'
p4441
(lp4442
(lp4443
(lp4444
F-25.15781037488022
aF29.65041951458896
aa(lp4445
F32.10627198756912
aF15.707449334489176
aa(lp4446
F93.33543195921173
aF5.719074169643834
aaag4441
aF0.0026990863418746404
aI01
asS'soft purple'
p4447
(lp4448
(lp4449
(lp4450
F-78.77843042654136
aF23.538274722297203
aa(lp4451
F45.222083743042155
aF15.516047304720086
aa(lp4452
F74.32573029211902
aF15.723266114981788
aaag4447
aF9.651318225628124e-05
aI01
asS'brown-red'
p4453
(lp4454
(lp4455
(lp4456
F7.448831891915711
aF13.62921869584395
aa(lp4457
F72.24426304321649
aF17.602145324314844
aa(lp4458
F57.45098039215956
aF15.562716704122428
aaag4453
aF0.00015100701985676655
aI01
asS'twilight blue'
p4459
(lp4460
(lp4461
(lp4462
F230.20362729868165
aF23.9488394012773
aa(lp4463
F69.08012436309687
aF19.135115022005316
aa(lp4464
F63.93808049535366
aF21.02255850009781
aaag4459
aF6.237246472344705e-05
aI00
asS'vibrant purple'
p4465
(lp4466
(lp4467
(lp4468
F-76.5602391931406
aF16.945508509144226
aa(lp4469
F85.18570796051237
aF10.6437577072284
aa(lp4470
F81.44911297851998
aF13.373600294868972
aaag4465
aF6.893798732591517e-05
aI01
asS'rusty orange'
p4471
(lp4472
(lp4473
(lp4474
F22.335408344550775
aF8.756769981779584
aa(lp4475
F84.05221212055346
aF10.786373600632269
aa(lp4476
F80.45567522783875
aF9.929560854826835
aaag4471
aF9.323042095504717e-05
aI01
asS'mid green'
p4477
(lp4478
(lp4479
(lp4480
F118.35798753954407
aF21.956397724491964
aa(lp4481
F72.80821901873307
aF17.276944830537726
aa(lp4482
F69.52305246422763
aF13.757479607324607
aaag4477
aF9.716973451652805e-05
aI01
asS'olive drab'
p4483
(lp4484
(lp4485
(lp4486
F74.4462551887634
aF22.010477522301358
aa(lp4487
F59.992684302452425
aF21.88292869724397
aa(lp4488
F52.07216744965727
aF15.247772290996009
aaag4483
aF0.0005836749593594151
aI00
asS'very light purple'
p4489
(lp4490
(lp4491
(lp4492
F-68.42909953187329
aF38.993573610552026
aa(lp4493
F23.828737332064776
aF16.67269989683756
aa(lp4494
F90.24722932651365
aF8.010887878978483
aaag4489
aF0.00010570491389973658
aI01
asS'ivory'
p4495
(lp4496
(lp4497
(lp4498
F56.46902462190953
aF34.24237771413917
aa(lp4499
F23.11205060352839
aF12.776778614333399
aa(lp4500
F93.8156411990109
aF6.430806647774588
aaag4495
aF0.00011424009328294513
aI01
asS'tealish'
p4501
(lp4502
(lp4503
(lp4504
F167.54694015067324
aF19.118564935269195
aa(lp4505
F68.85393118414144
aF20.033010983446022
aa(lp4506
F75.2367288378797
aF13.654727101875226
aaag4501
aF8.075592801035776e-05
aI00
asS'french blue'
p4507
(lp4508
(lp4509
(lp4510
F221.6950601532929
aF19.96089496831664
aa(lp4511
F63.80909298457922
aF18.831471027793135
aa(lp4512
F76.13736824209596
aF15.519288349850381
aaag4507
aF0.00011358354102269832
aI00
asS'bluish green'
p4513
(lp4514
(lp4515
(lp4516
F155.80429794799568
aF17.30283692133835
aa(lp4517
F71.39113340699845
aF19.15408903848868
aa(lp4518
F70.21193158114482
aF16.85265419677534
aaag4513
aF0.0006171591246320025
aI00
asS'bright olive'
p4519
(lp4520
(lp4521
(lp4522
F80.40114563494737
aF15.675608581907793
aa(lp4523
F79.59158167866211
aF15.400184884662666
aa(lp4524
F68.89989680082418
aF12.318848057853424
aaag4519
aF6.237246472344705e-05
aI01
asS'medium green'
p4525
(lp4526
(lp4527
(lp4528
F120.1240009075837
aF22.09378411577517
aa(lp4529
F75.5828825520464
aF15.582096815455296
aa(lp4530
F68.910999343976
aF14.061873353636633
aaag4525
aF0.0003532251160127844
aI00
asS'aquamarine'
p4531
(lp4532
(lp4533
(lp4534
F170.89078552098627
aF18.70981373803807
aa(lp4535
F72.81838900543327
aF19.15078995712275
aa(lp4536
F81.33312607139376
aF14.963602079854661
aaag4531
aF0.0029814038137807694
aI00
asS'hiccup'
p4537
(lp4538
(lp4539
(lp4540
F200.6975515381435
aF100.30024466392604
aa(lp4541
F73.309181636852
aF21.71252259748197
aa(lp4542
F81.05620915032668
aF16.27357721033413
aaag4537
aF4.924141951851084e-05
aI00
asS'blueish'
p4543
(lp4544
(lp4545
(lp4546
F212.2555015150206
aF31.05569257242316
aa(lp4547
F63.968047987813186
aF20.940354460817762
aa(lp4548
F74.63478958834799
aF15.707133537393045
aaag4543
aF0.0004490817460088188
aI00
asS'pale mauve'
p4549
(lp4550
(lp4551
(lp4552
F-33.746300517154
aF42.501322063035175
aa(lp4553
F26.44425016479049
aF13.794094798221924
aa(lp4554
F83.30262225371924
aF11.238259987196015
aaag4549
aF5.4493837600485324e-05
aI01
asS'coral pink'
p4555
(lp4556
(lp4557
(lp4558
F-4.851748607934024
aF12.752096926119734
aa(lp4559
F58.534258545610825
aF15.497211489982307
aa(lp4560
F91.4764942121494
aF6.244638420437125
aaag4555
aF5.4493837600485324e-05
aI01
asS'faded purple'
p4561
(lp4562
(lp4563
(lp4564
F-66.72276840779327
aF33.34500521552049
aa(lp4565
F36.38058331260494
aF15.772234278706629
aa(lp4566
F66.95801831704519
aF15.150142775985158
aaag4561
aF0.00020944017101873276
aI01
asS'apricot'
p4567
(lp4568
(lp4569
(lp4570
F26.279707006942218
aF14.14240622028297
aa(lp4571
F57.33549523707027
aF15.318188603990908
aa(lp4572
F92.42050874403772
aF6.378771281990021
aaag4567
aF0.0001943394690330561
aI01
asS'dark lilac'
p4573
(lp4574
(lp4575
(lp4576
F-75.72096483704672
aF29.941848918429557
aa(lp4577
F49.082637534944475
aF18.547057776086003
aa(lp4578
F71.72958735733039
aF15.499670195671118
aaag4573
aF0.00021994500718268173
aI01
asS'brown-grey'
p4579
(lp4580
(lp4581
(lp4582
F35.529955188364696
aF28.43357267222882
aa(lp4583
F33.41762851105389
aF14.660004651611407
aa(lp4584
F52.47142707350373
aF15.973558838400368
aaag4579
aF0.00012277527266615367
aI01
asS'strawberry'
p4585
(lp4586
(lp4587
(lp4588
F-9.079461386630738
aF10.831846773809847
aa(lp4589
F78.52138296658757
aF12.633966343488034
aa(lp4590
F87.54403456298026
aF9.07095138883401
aaag4585
aF0.00011620975006368557
aI01
asS'light cyan'
p4591
(lp4592
(lp4593
(lp4594
F171.92789547174124
aF18.963634044853805
aa(lp4595
F46.587152881347826
aF20.598754990295525
aa(lp4596
F92.67581397455342
aF6.87940182138576
aaag4591
aF0.0002842871286868692
aI00
asS'purple-red'
p4597
(lp4598
(lp4599
(lp4600
F-28.72871607011601
aF15.91829507716617
aa(lp4601
F75.8536541815829
aF16.656953377480217
aa(lp4602
F62.843137254904164
aF14.20184135364908
aaag4597
aF0.00015757254245923468
aI01
asS'sapphire'
p4603
(lp4604
(lp4605
(lp4606
F228.9992621343767
aF21.85434303326134
aa(lp4607
F79.37832323191388
aF15.141386975686487
aa(lp4608
F69.8088855795481
aF19.221256674931272
aaag4603
aF5.186762855949808e-05
aI00
asS'cerulean'
p4609
(lp4610
(lp4611
(lp4612
F209.34250586299234
aF24.069339274696034
aa(lp4613
F78.37594298352111
aF17.24946996145898
aa(lp4614
F79.38651516944827
aF15.276887369367563
aaag4609
aF0.0013052258933706606
aI00
asS'grass'
p4615
(lp4616
(lp4617
(lp4618
F108.53620101181501
aF21.460770818662496
aa(lp4619
F74.97778866730476
aF16.649370252568108
aa(lp4620
F72.44749970994192
aF14.047275468458317
aaag4615
aF0.00044382932792684434
aI00
asS'rust'
p4621
(lp4622
(lp4623
(lp4624
F14.198763149378188
aF11.078997655518707
aa(lp4625
F79.04746982679924
aF15.010325684546231
aa(lp4626
F67.62847166263822
aF13.48186110760873
aaag4621
aF0.0011982078749504302
aI01
asS'chestnut'
p4627
(lp4628
(lp4629
(lp4630
F16.6162104656215
aF14.786762910429497
aa(lp4631
F74.31639527249686
aF18.030923333887788
aa(lp4632
F54.457720588236725
aF15.893497292429252
aaag4627
aF8.403868931159183e-05
aI01
asS'russet'
p4633
(lp4634
(lp4635
(lp4636
F10.488850377699462
aF16.173652960622128
aa(lp4637
F76.63728126908002
aF16.4595777333415
aa(lp4638
F63.62509803921482
aF14.695747953748324
aaag4633
aF0.00016413806506170278
aI01
asS'rust orange'
p4639
(lp4640
(lp4641
(lp4642
F22.145348029464802
aF8.965491931415208
aa(lp4643
F83.54578916234372
aF11.546283952369139
aa(lp4644
F78.92507002800536
aF9.348783427126621
aaag4639
aF7.353385314764285e-05
aI00
asS'light fuchsia'
p4645
(lp4646
(lp4647
(lp4648
F308.7996861102767
aF17.89522502266301
aa(lp4649
F56.120537715452805
aF17.975420510392592
aa(lp4650
F88.08470588235355
aF9.820006757549208
aaag4645
aF8.206903253085139e-05
aI00
asS'very dark blue'
p4651
(lp4652
(lp4653
(lp4654
F231.83968506426714
aF27.02936448048915
aa(lp4655
F70.18567030086078
aF21.429040414995093
aa(lp4656
F26.820392156862724
aF11.966262557710364
aaag4651
aF8.206903253085139e-05
aI00
asS'sepia'
p4657
(lp4658
(lp4659
(lp4660
F32.07649631187585
aF18.50535422742602
aa(lp4661
F64.42652759349778
aF21.97088330052653
aa(lp4662
F62.608437314319204
aF17.055669194422777
aaag4657
aF0.0001299973475288686
aI01
asS'maroon'
p4663
(lp4664
(lp4665
(lp4666
F-14.033610685780877
aF16.82601701632365
aa(lp4667
F78.14512287692534
aF15.904282595456532
aa(lp4668
F51.29210027800328
aF14.558749015845036
aaag4663
aF0.006279265817000502
aI01
asS'light sea green'
p4669
(lp4670
(lp4671
(lp4672
F141.98669743267345
aF24.34854945142122
aa(lp4673
F50.64401832519714
aF22.408078247643257
aa(lp4674
F87.83919597990051
aF10.063946742677773
aaag4669
aF0.00013065389978911542
aI00
asS'sunflower yellow'
p4675
(lp4676
(lp4677
(lp4678
F50.96593395168713
aF8.534593223975603
aa(lp4679
F82.3880951735321
aF13.734766286119624
aa(lp4680
F94.14185427257532
aF5.083809976336575
aaag4675
aF5.31807330799917e-05
aI00
asS'purplish blue'
p4681
(lp4682
(lp4683
(lp4684
F252.21926133872927
aF13.597547661036181
aa(lp4685
F71.42398525105008
aF17.966739936094385
aa(lp4686
F78.50499253655778
aF15.43582330501304
aaag4681
aF0.0008883152081139355
aI00
asS'spring green'
p4687
(lp4688
(lp4689
(lp4690
F107.41719701374949
aF24.193303635365137
aa(lp4691
F69.74324855869823
aF18.176930592936106
aa(lp4692
F86.85073405093503
aF9.81320575353002
aaag4687
aF0.001682743443012577
aI01
asS'light blue'
p4693
(lp4694
(lp4695
(lp4696
F197.38890870028516
aF22.866382871744698
aa(lp4697
F56.818581635607956
aF22.96385163961266
aa(lp4698
F88.83231081817773
aF8.71816633114329
aaag4693
aF0.01948318832282412
aI00
asS'lime green'
p4699
(lp4700
(lp4701
(lp4702
F99.15343157609566
aF19.374971935754036
aa(lp4703
F81.28099583086228
aF14.278920986051547
aa(lp4704
F89.27844497877173
aF8.582243115193572
aaag4699
aF0.012110762992512679
aI01
asS'shit'
p4705
(lp4706
(lp4707
(lp4708
F37.81057643645785
aF62.84804826510911
aa(lp4709
F69.62817931460025
aF22.190620807116243
aa(lp4710
F61.332424861836316
aF20.425033896121555
aaag4705
aF0.0001700470354039241
aI01
asS'ice'
p4711
(lp4712
(lp4713
(lp4714
F178.86891371848404
aF34.815450549420135
aa(lp4715
F27.59352925447214
aF22.58949699657114
aa(lp4716
F92.73268801191139
aF6.397052135211405
aaag4711
aF5.186762855949808e-05
aI00
asS'lemon'
p4717
(lp4718
(lp4719
(lp4720
F65.77390944869586
aF16.350447294562283
aa(lp4721
F68.55186603045748
aF18.952952003587036
aa(lp4722
F93.83356492203347
aF6.45537479437742
aaag4717
aF0.00016676427410269003
aI01
asS'peach'
p4723
(lp4724
(lp4725
(lp4726
F23.06096490326679
aF13.86071489661477
aa(lp4727
F49.83249759825142
aF14.778138192634135
aa(lp4728
F93.5215731551687
aF5.664447335786443
aaag4723
aF0.004549250611250154
aI01
asS'bright violet'
p4729
(lp4730
(lp4731
(lp4732
F283.2362812233503
aF18.20480752928895
aa(lp4733
F77.84956926550835
aF15.105122207428893
aa(lp4734
F85.84279325765434
aF11.419150567622722
aaag4729
aF0.00014969391533627293
aI00
asS'pale'
p4735
(lp4736
(lp4737
(lp4738
F32.88028048798015
aF70.59226772219073
aa(lp4739
F29.006782502898847
aF18.665727526506963
aa(lp4740
F89.81900452488718
aF8.978515330913746
aaag4735
aF5.121107629925127e-05
aI01
asS'diarrhea'
p4741
(lp4742
(lp4743
(lp4744
F49.467584364292996
aF15.115124102122406
aa(lp4745
F81.89498192823466
aF16.498221229557227
aa(lp4746
F62.64105642256632
aF13.515404829585053
aaag4741
aF6.434212150418749e-05
aI00
asS'brownish orange'
p4747
(lp4748
(lp4749
(lp4750
F29.774629743147845
aF14.149437234174197
aa(lp4751
F80.60849913412866
aF13.580093567323498
aa(lp4752
F77.12565838976721
aF10.061725821409066
aaag4747
aF0.0002908526512893373
aI00
asS'bubblegum'
p4753
(lp4754
(lp4755
(lp4756
F-30.155423571468468
aF36.975639271900896
aa(lp4757
F55.01894035052072
aF14.963619050841315
aa(lp4758
F92.44656421127213
aF6.888504754922476
aaag4753
aF7.287730088739604e-05
aI01
asS'bright yellow green'
p4759
(lp4760
(lp4761
(lp4762
F89.56416676939106
aF17.94400134381236
aa(lp4763
F84.02800752249476
aF14.011948247500296
aa(lp4764
F90.83591331269078
aF8.924622597376532
aaag4759
aF4.989797177875764e-05
aI00
asS'rose pink'
p4765
(lp4766
(lp4767
(lp4768
F-18.283433800909012
aF17.29431161307997
aa(lp4769
F52.30599979577496
aF18.6477936125289
aa(lp4770
F87.13926596279448
aF9.400348247062563
aaag4765
aF0.0004352941485436358
aI01
asS'purple blue'
p4771
(lp4772
(lp4773
(lp4774
F-106.4216262585876
aF13.49524257149478
aa(lp4775
F70.68058874562541
aF18.001146720349
aa(lp4776
F77.13442490398246
aF15.987253571061693
aaag4771
aF0.0009552835386591102
aI01
asS'fluro green'
p4777
(lp4778
(lp4779
(lp4780
F109.4409288433021
aF18.991695984459366
aa(lp4781
F86.90554722723736
aF10.38266375871819
aa(lp4782
F93.82499268364252
aF5.935703160730149
aaag4777
aF8.797800287307269e-05
aI00
asS'dusky pink'
p4783
(lp4784
(lp4785
(lp4786
F-14.951636539849014
aF20.137631972825385
aa(lp4787
F43.97195316526445
aF15.912070869315874
aa(lp4788
F81.12612612612563
aF9.351542937463545
aaag4783
aF0.0001943394690330561
aI01
asS'purpley pink'
p4789
(lp4790
(lp4791
(lp4792
F-49.63898254610521
aF17.57109282457773
aa(lp4793
F65.04716343073356
aF19.881714346050067
aa(lp4794
F82.06853348368081
aF12.232877445767267
aaag4789
aF0.00020550085745725188
aI01
asS'evergreen'
p4795
(lp4796
(lp4797
(lp4798
F129.33846808821878
aF26.673021990876272
aa(lp4799
F72.12670973237407
aF19.586346668710124
aa(lp4800
F46.56092585654312
aF16.73726900081933
aaag4795
aF0.000309236114576248
aI00
asS'pale peach'
p4801
(lp4802
(lp4803
(lp4804
F31.656082097602354
aF16.613398579733154
aa(lp4805
F36.93337742027271
aF13.291628051426942
aa(lp4806
F93.79811183732839
aF7.28910037190023
aaag4801
aF5.31807330799917e-05
aI01
asS'poop'
p4807
(lp4808
(lp4809
(lp4810
F36.8851419838042
aF39.93009728329501
aa(lp4811
F74.39831741213
aF18.88134824996926
aa(lp4812
F57.22126806927167
aF16.670976374556755
aaag4807
aF0.0003597906386152525
aI01
asS'bright indigo'
p4813
(lp4814
(lp4815
(lp4816
F257.47849230701996
aF15.092023857965058
aa(lp4817
F80.68562782551948
aF14.814375849511626
aa(lp4818
F84.57516339869166
aF10.426424367379791
aaag4813
aF4.72717627377704e-05
aI00
asS'mustard'
p4819
(lp4820
(lp4821
(lp4822
F51.73594742591047
aF8.665836725163185
aa(lp4823
F80.2574817825271
aF13.742197106385472
aa(lp4824
F80.8408129704038
aF10.535153436808306
aaag4819
aF0.003162612237608889
aI00
asS'shamrock green'
p4825
(lp4826
(lp4827
(lp4828
F127.82247861775868
aF19.617738351046206
aa(lp4829
F77.7096289953211
aF17.34060749318062
aa(lp4830
F73.42310418143012
aF15.956022869717092
aaag4825
aF0.00010898767520097065
aI01
asS'sea green'
p4831
(lp4832
(lp4833
(lp4834
F147.34745710433245
aF20.435019103027926
aa(lp4835
F64.55048463069213
aF21.306903901552186
aa(lp4836
F79.23578126902983
aF15.661697289914368
aaag4831
aF0.00465101621158841
aI00
asS'bright green'
p4837
(lp4838
(lp4839
(lp4840
F115.95627511949964
aF17.812996450090896
aa(lp4841
F85.57323621157373
aF11.530123202869325
aa(lp4842
F88.80760358869529
aF8.987222171807044
aaag4837
aF0.006814355909101653
aI01
asS'vibrant green'
p4843
(lp4844
(lp4845
(lp4846
F114.37676102526
aF17.324970763044064
aa(lp4847
F85.68253358402548
aF11.289924399570179
aa(lp4848
F86.06689734717155
aF9.42580426047442
aaag4843
aF6.696833054517474e-05
aI00
asS'dark yellow-green'
p4849
(lp4850
(lp4851
(lp4852
F76.68282217562846
aF17.87784363030227
aa(lp4853
F80.1656836252034
aF14.354456131375969
aa(lp4854
F63.23917137476556
aF15.145033969761084
aaag4849
aF0.00011620975006368557
aI00
asS'tiffany blue'
p4855
(lp4856
(lp4857
(lp4858
F175.7909553261165
aF13.141771472026749
aa(lp4859
F63.436416552543754
aF21.42466794338969
aa(lp4860
F86.45588235293998
aF8.539422511622474
aaag4855
aF5.252418081974489e-05
aI00
asS'light teal'
p4861
(lp4862
(lp4863
(lp4864
F162.8013848440033
aF18.865577685938643
aa(lp4865
F56.52193691728909
aF22.24358036602367
aa(lp4866
F83.66972661754724
aF11.518472466242509
aaag4861
aF0.001278963802960788
aI00
asS'orangish red'
p4867
(lp4868
(lp4869
(lp4870
F8.949728649878997
aF7.888151899190483
aa(lp4871
F83.44645287033744
aF10.493753847650265
aa(lp4872
F84.90196078431667
aF10.358291513773416
aaag4867
aF9.45435254755408e-05
aI01
asS'dark beige'
p4873
(lp4874
(lp4875
(lp4876
F40.66360601077939
aF18.221941285912614
aa(lp4877
F47.03019016441468
aF18.632202113117312
aa(lp4878
F70.66578541529105
aF13.255120938900825
aaag4873
aF0.00029216575580983095
aI01
asS'drab'
p4879
(lp4880
(lp4881
(lp4882
F63.68750708904996
aF35.68947144354629
aa(lp4883
F54.72884957299781
aF21.994963065400633
aa(lp4884
F57.77456995067425
aF16.227339049218795
aaag4879
aF0.00010701801842023021
aI01
asS'mustard yellow'
p4885
(lp4886
(lp4887
(lp4888
F52.84118191893379
aF8.299886984594133
aa(lp4889
F81.18026277292333
aF13.27715515277166
aa(lp4890
F82.54823033296188
aF10.051521638003843
aaag4885
aF0.0011417443805692045
aI00
asS'tan'
p4891
(lp4892
(lp4893
(lp4894
F41.39103715244223
aF14.113932299327807
aa(lp4895
F50.372228944013706
aF18.654949458740536
aa(lp4896
F80.37801753165351
aF11.358885071343568
aaag4891
aF0.009214054420303748
aI01
asS'magenta'
p4897
(lp4898
(lp4899
(lp4900
F-41.566291723381894
aF18.353611772474263
aa(lp4901
F81.41941863275865
aF13.844321908323867
aa(lp4902
F80.15677743297407
aF13.788599986599884
aaag4897
aF0.015693568676679526
aI01
asS'dull yellow'
p4903
(lp4904
(lp4905
(lp4906
F56.05776907865477
aF8.436304986193324
aa(lp4907
F67.97671213110215
aF17.17622881303638
aa(lp4908
F87.36724583072137
aF8.954453616929097
aaag4903
aF0.00018449118512935394
aI00
asS'highlighter green'
p4909
(lp4910
(lp4911
(lp4912
F113.66780870391486
aF18.155774112982133
aa(lp4913
F83.76991832511075
aF12.617469269033261
aa(lp4914
F92.37613324899458
aF6.722481528038031
aaag4909
aF6.105936020295343e-05
aI01
asS'blurple'
p4915
(lp4916
(lp4917
(lp4918
F-105.62322995736963
aF15.38816396539206
aa(lp4919
F71.44857160516989
aF17.85372583433491
aa(lp4920
F76.92229900556129
aF16.433773373188792
aaag4915
aF0.00022913673882613708
aI01
asS'macaroni and cheese'
p4921
(lp4922
(lp4923
(lp4924
F40.58109639278691
aF8.424801066095206
aa(lp4925
F79.13744775100858
aF12.86512187835842
aa(lp4926
F93.91596638655855
aF5.7286138814653675
aaag4921
aF4.595865821727678e-05
aI00
asS'stormy blue'
p4927
(lp4928
(lp4929
(lp4930
F207.21254961501737
aF21.41841309769433
aa(lp4931
F53.15878987568377
aF18.21842493136823
aa(lp4932
F59.08850026497164
aF15.376526867660408
aaag4927
aF4.8584867258264024e-05
aI00
asS'light seafoam green'
p4933
(lp4934
(lp4935
(lp4936
F131.84477096985256
aF23.911675337772728
aa(lp4937
F38.633297135558564
aF17.570631846594065
aa(lp4938
F91.37254901961
aF6.986872640947512
aaag4933
aF4.595865821727678e-05
aI00
asS'ocean green'
p4939
(lp4940
(lp4941
(lp4942
F149.71034767663974
aF20.541479746962995
aa(lp4943
F66.53027137871548
aF19.873254258795892
aa(lp4944
F70.18595825426772
aF18.760221835151388
aaag4939
aF0.00010176560033825572
aI00
asS'grape purple'
p4945
(lp4946
(lp4947
(lp4948
F-63.50196484947705
aF25.45812331083284
aa(lp4949
F69.97634915701592
aF20.45067924112543
aa(lp4950
F54.5061389041645
aF19.178251323803973
aaag4945
aF7.025109184640879e-05
aI01
asS'wine'
p4951
(lp4952
(lp4953
(lp4954
F-23.31052815158763
aF15.625529125026718
aa(lp4955
F76.89367790481289
aF15.934858308151208
aa(lp4956
F52.41502858966006
aF13.913865432148858
aaag4951
aF0.0005245852559372021
aI01
asS'light blue-green'
p4957
(lp4958
(lp4959
(lp4960
F154.63816351583407
aF20.72300233745098
aa(lp4961
F55.94713397396039
aF22.771507431461227
aa(lp4962
F87.6552026561438
aF9.959058594522773
aaag4957
aF0.00041100171491450377
aI00
asS'slate blue'
p4963
(lp4964
(lp4965
(lp4966
F205.5700587479745
aF24.002463708490914
aa(lp4967
F46.393692504067666
aF19.41240641351983
aa(lp4968
F60.95000443616364
aF15.884224191096584
aaag4963
aF0.0011607843961163621
aI00
asS'dark green'
p4969
(lp4970
(lp4971
(lp4972
F120.68424017423041
aF28.821675037621755
aa(lp4973
F73.10847312325888
aF19.281711429475553
aa(lp4974
F39.38842410138651
aF13.960354407401208
aaag4969
aF0.007418383988528719
aI00
as.
