(lp0
(lp1
F0.010641399034080314
aF0.009552835386591102
aF0.009502280862552098
aF0.009532482266523451
aF0.009429403561664702
aF0.009762275557609834
aF0.009760305900829094
aF0.009810860424868098
aF0.009889646696097716
aF0.009688085152201945
aF0.009888333591577222
aF0.009560057461453816
aF0.00939460629187162
aF0.00939263663509088
aF0.009222589599686956
aF0.009305315184478054
aF0.009466170488238522
aF0.009185166120852888
aF0.009291527587012871
aF0.00900133148798378
aF0.009653287882408865
aF0.009485867056045927
aF0.009649348568847383
aF0.009965806758286346
aF0.009543643654947646
aF0.010447059565047259
aF0.010153580704716935
aF0.010121409643964841
aF0.010206761437796925
aF0.010147015182114466
aF0.010472665103196884
aF0.010223175244303096
aF0.01055998655380971
aF0.010435898176623062
aF0.010374182264159863
aF0.01033347602402456
aF0.010188377974510015
aF0.01001045231198313
aF0.010056410970200406
aF0.009522633982619749
aF0.009848940455962414
aF0.00954495675946814
aF0.009518694669058268
aF0.009670358241175282
aF0.009577784372480481
aF0.009780002468636499
aF0.009783941782197979
aF0.009854849426304635
aF0.010027522670749547
aF0.00913526814907413
aF0.011079975943925185
aF0.00993823156335598
aF0.009986816430614245
aF0.010115500673622619
aF0.010097773762595954
aF0.010245498021151487
aF0.010238275946288773
aF0.010252720096014202
aF0.010191660735811249
aF0.010203478676495691
aF0.01043655472888331
aF0.010531754806619097
aF0.010464786476073922
aF0.01034792017374999
aF0.010198882810673965
aF0.010278325634163829
aF0.0106958928716808
aF0.010096460658075462
aF0.010410949190733683
aF0.010085299269651266
aF0.010489735461963301
aF0.010258629066356424
aF0.010246811125671981
aF0.010366960189297147
aF0.009822678365552541
aF0.01098411931392915
aF0.01061119763010896
aF0.010599379689424518
aF0.010573774151274893
aF0.010478574073539106
aF0.010649277661203277
aF0.01022251869204285
aF0.010387313309364798
aF0.010287517365807283
aF0.010214640064919888
aF0.010424736788198868
aF0.010408322981692697
aF0.010243528364370747
aF0.010330849814983573
aF0.009833839753976737
aF0.010296052545190492
aF0.010070855119925837
aF0.009783941782197979
aF0.009760962453089342
aF0.009692024465763427
aF0.009741265885281937
aF0.009732730705898729
aF0.0096355609713822
aF0.009638187180423188
aF0.008746589211008017
aa(lp2
F0.00038408307224438454
aF0.001209369263374626
aF0.0019617781536174716
aF0.0027548932839956196
aF0.0033247806458898514
aF0.004261680721262051
aF0.0048926274433592366
aF0.005526856926757656
aF0.006257599592412357
aF0.006782184848349559
aF0.0079679182303553
aF0.0084517972461572
aF0.009204206136400045
aF0.01019756970615347
aF0.01070836736462549
aF0.011911171105397647
aF0.012293284520861291
aF0.013100187248704622
aF0.013841434750523272
aF0.014561016027753778
aF0.016138054556866618
aF0.01656809628732828
aF0.017110408454292146
aF0.017915341525354737
aF0.01774398138543032
aF0.02119416351302731
aF0.020473925683536558
aF0.02155067139034133
aF0.02250529837674019
aF0.02250135906317871
aF0.024767777465550703
aF0.024892522394997597
aF0.025826139709068562
aF0.026685566617731638
aF0.027328987832773512
aF0.028560023320736285
aF0.029492327530286754
aF0.030141001163410605
aF0.03109956746337095
aF0.03142521738445337
aF0.03410526371078085
aF0.03393652977989742
aF0.03488590434821431
aF0.035469579307573725
aF0.03614517158336769
aF0.03741494365468503
aF0.03848512383888733
aF0.03892895316681417
aF0.04018756384970731
aF0.046927729353401074
aa(lp3
F9.191731643455357e-06
aF8.075592801035776e-05
aF0.00017201669218466453
aF0.0003702954747792015
aF0.0005258983604576957
aF0.0007589744128453136
aF0.0010032118536571274
aF0.0013570935219301586
aF0.0016735517113691215
aF0.002083240321763132
aF0.0031120577135698847
aF0.0031718039692523446
aF0.0036025022519742527
aF0.004201934465579591
aF0.005060704821982421
aF0.0057067522460652826
aF0.006472948733773311
aF0.007189247249702582
aF0.00808938039850096
aF0.008901535544426265
aF0.011752942010678166
aF0.011063562137419014
aF0.011846172431633214
aF0.012911100197753541
aF0.014140166028935572
aF0.015262870393957618
aF0.01628840502446314
aF0.01756802537968417
aF0.018764263597853863
aF0.01987908933575295
aF0.02575063619914018
aF0.023116548531029974
aF0.024617426997954182
aF0.026021135730361866
aF0.02729616021976117
aF0.02913319344393175
aF0.03047912557743771
aF0.0327678667566581
aF0.0339923367220184
aF0.035601546311883336
aF0.045891689886731604
aF0.0401271610417646
aF0.042043637089425046
aF0.044213542309540756
aF0.04669793606231469
aF0.04902278761584865
aF0.051153956252609795
aF0.05358451272004349
aF0.05574259999947476
aF0.06972650659047158
aa.